Archive member included because of file (symbol)

libbb/lib.a(appletlib.o)      /opt/toolchains/crosstools-arm-gcc-4.6-linux-3.4-uclibc-0.9.32-binutils-2.21-NPTL/usr/arm-unknown-linux-uclibcgnueabi/sysroot/usr/lib/crt1.o (main)
libbb/lib.a(bb_basename.o)    libbb/lib.a(appletlib.o) (bb_basename)
libbb/lib.a(default_error_retval.o)
                              libbb/lib.a(appletlib.o) (xfunc_error_retval)
libbb/lib.a(get_last_path_component.o)
                              libbb/lib.a(appletlib.o) (bb_get_last_path_component_nostrip)
libbb/lib.a(last_char_is.o)   libbb/lib.a(get_last_path_component.o) (last_char_is)
libbb/lib.a(messages.o)       libbb/lib.a(appletlib.o) (bb_banner)
libbb/lib.a(ptr_to_globals.o)
                              libbb/lib.a(appletlib.o) (bb_errno)
libbb/lib.a(xfunc_die.o)      libbb/lib.a(appletlib.o) (xfunc_die)
libbb/lib.a(xfuncs.o)         libbb/lib.a(appletlib.o) (full_write2_str)
libbb/lib.a(xfuncs_printf.o)  libbb/lib.a(appletlib.o) (malloc_or_warn)
libbb/lib.a(copyfd.o)         libbb/lib.a(xfuncs_printf.o) (bb_copyfd_eof)
libbb/lib.a(full_write.o)     libbb/lib.a(xfuncs.o) (full_write)
libbb/lib.a(perror_msg.o)     libbb/lib.a(xfuncs_printf.o) (bb_perror_msg)
libbb/lib.a(read.o)           libbb/lib.a(copyfd.o) (safe_read)
libbb/lib.a(safe_write.o)     libbb/lib.a(full_write.o) (safe_write)
libbb/lib.a(time.o)           libbb/lib.a(xfuncs_printf.o) (monotonic_us)
libbb/lib.a(verror_msg.o)     libbb/lib.a(xfuncs_printf.o) (bb_verror_msg)
libbb/lib.a(bb_strtonum.o)    libbb/lib.a(time.o) (bb_strtol)
loginutils/lib.a(deluser.o)   libbb/lib.a(appletlib.o) (deluser_main)
miscutils/lib.a(chrt.o)       libbb/lib.a(appletlib.o) (chrt_main)
miscutils/lib.a(flash_eraseall.o)
                              libbb/lib.a(appletlib.o) (flash_eraseall_main)
miscutils/lib.a(sysinfo.o)    libbb/lib.a(appletlib.o) (sysinfo_main)
miscutils/lib.a(taskset.o)    libbb/lib.a(appletlib.o) (taskset_main)
modutils/lib.a(depmod.o)      libbb/lib.a(appletlib.o) (depmod_main)
modutils/lib.a(insmod.o)      libbb/lib.a(appletlib.o) (insmod_main)
modutils/lib.a(modprobe.o)    libbb/lib.a(appletlib.o) (modprobe_main)
modutils/lib.a(modutils.o)    modutils/lib.a(depmod.o) (string_to_llist)
modutils/lib.a(rmmod.o)       libbb/lib.a(appletlib.o) (rmmod_main)
networking/lib.a(ftpgetput.o)
                              libbb/lib.a(appletlib.o) (ftpgetput_main)
networking/lib.a(ifconfig.o)  libbb/lib.a(appletlib.o) (ifconfig_main)
networking/lib.a(interface.o)
                              networking/lib.a(ifconfig.o) (display_interfaces)
networking/lib.a(nc.o)        libbb/lib.a(appletlib.o) (nc_main)
networking/lib.a(ping.o)      libbb/lib.a(appletlib.o) (ping_main)
networking/lib.a(route.o)     libbb/lib.a(appletlib.o) (route_main)
networking/lib.a(sendarp.o)   libbb/lib.a(appletlib.o) (sendarp_main)
networking/lib.a(tftp.o)      libbb/lib.a(appletlib.o) (tftp_main)
networking/lib.a(tftpd.o)     libbb/lib.a(appletlib.o) (tftpd_main)
networking/lib.a(traceroute.o)
                              libbb/lib.a(appletlib.o) (traceroute_main)
networking/lib.a(vconfig.o)   libbb/lib.a(appletlib.o) (vconfig_main)
networking/lib.a(wget.o)      libbb/lib.a(appletlib.o) (wget_main)
procps/lib.a(kill.o)          libbb/lib.a(appletlib.o) (kill_main)
procps/lib.a(ps.o)            libbb/lib.a(appletlib.o) (ps_main)
procps/lib.a(top.o)           libbb/lib.a(appletlib.o) (top_main)
shell/lib.a(ash.o)            libbb/lib.a(appletlib.o) (ash_main)
shell/lib.a(ash_ptr_hack.o)   shell/lib.a(ash.o) (ash_ptr_to_globals_var)
shell/lib.a(math.o)           shell/lib.a(ash.o) (arith)
shell/lib.a(shell_common.o)   shell/lib.a(ash.o) (shell_builtin_read)
sysklogd/lib.a(klogd.o)       libbb/lib.a(appletlib.o) (klogd_main)
sysklogd/lib.a(logread.o)     libbb/lib.a(appletlib.o) (logread_main)
sysklogd/lib.a(syslogd_and_logger.o)
                              libbb/lib.a(appletlib.o) (syslogd_main)
util-linux/lib.a(dmesg.o)     libbb/lib.a(appletlib.o) (dmesg_main)
util-linux/lib.a(more.o)      libbb/lib.a(appletlib.o) (more_main)
util-linux/lib.a(mount.o)     libbb/lib.a(appletlib.o) (mount_main)
util-linux/lib.a(umount.o)    libbb/lib.a(appletlib.o) (umount_main)
archival/lib.a(bbunzip.o)     libbb/lib.a(appletlib.o) (gunzip_main)
archival/libunarchive/lib.a(decompress_bunzip2.o)
                              libbb/lib.a(appletlib.o) (read_bunzip)
archival/libunarchive/lib.a(decompress_unzip.o)
                              archival/lib.a(bbunzip.o) (unpack_gz_stream_with_info)
coreutils/lib.a(cat.o)        util-linux/lib.a(more.o) (bb_cat)
coreutils/lib.a(chmod.o)      libbb/lib.a(appletlib.o) (chmod_main)
coreutils/lib.a(cp.o)         libbb/lib.a(appletlib.o) (cp_main)
coreutils/lib.a(date.o)       libbb/lib.a(appletlib.o) (date_main)
coreutils/lib.a(dd.o)         libbb/lib.a(appletlib.o) (dd_main)
coreutils/lib.a(df.o)         libbb/lib.a(appletlib.o) (df_main)
coreutils/lib.a(echo.o)       libbb/lib.a(appletlib.o) (echo_main)
coreutils/lib.a(expr.o)       libbb/lib.a(appletlib.o) (expr_main)
coreutils/lib.a(false.o)      libbb/lib.a(appletlib.o) (false_main)
coreutils/lib.a(ln.o)         libbb/lib.a(appletlib.o) (ln_main)
coreutils/lib.a(ls.o)         libbb/lib.a(appletlib.o) (ls_main)
coreutils/lib.a(mkdir.o)      libbb/lib.a(appletlib.o) (mkdir_main)
coreutils/lib.a(mknod.o)      libbb/lib.a(appletlib.o) (mknod_main)
coreutils/lib.a(pwd.o)        libbb/lib.a(appletlib.o) (pwd_main)
coreutils/lib.a(rm.o)         libbb/lib.a(appletlib.o) (rm_main)
coreutils/lib.a(sleep.o)      libbb/lib.a(appletlib.o) (sleep_main)
coreutils/lib.a(stty.o)       libbb/lib.a(appletlib.o) (stty_main)
coreutils/lib.a(sync.o)       libbb/lib.a(appletlib.o) (sync_main)
coreutils/lib.a(test.o)       libbb/lib.a(appletlib.o) (test_main)
coreutils/lib.a(test_ptr_hack.o)
                              coreutils/lib.a(test.o) (test_ptr_to_statics)
coreutils/lib.a(true.o)       libbb/lib.a(appletlib.o) (true_main)
coreutils/lib.a(tty.o)        libbb/lib.a(appletlib.o) (tty_main)
coreutils/libcoreutils/lib.a(cp_mv_stat.o)
                              coreutils/lib.a(cp.o) (cp_mv_stat2)
coreutils/libcoreutils/lib.a(getopt_mk_fifo_nod.o)
                              coreutils/lib.a(mknod.o) (getopt_mk_fifo_nod)
findutils/lib.a(grep.o)       libbb/lib.a(appletlib.o) (grep_main)
init/lib.a(halt.o)            libbb/lib.a(appletlib.o) (halt_main)
init/lib.a(init.o)            libbb/lib.a(appletlib.o) (init_main)
libbb/lib.a(bb_pwd.o)         sysklogd/lib.a(syslogd_and_logger.o) (uid2uname_utoa)
libbb/lib.a(compare_string_array.o)
                              networking/lib.a(wget.o) (index_in_strings)
libbb/lib.a(concat_path_file.o)
                              modutils/lib.a(depmod.o) (concat_path_file)
libbb/lib.a(copy_file.o)      coreutils/lib.a(cp.o) (copy_file)
libbb/lib.a(crc32.o)          archival/libunarchive/lib.a(decompress_bunzip2.o) (crc32_filltable)
libbb/lib.a(create_icmp6_socket.o)
                              networking/lib.a(ping.o) (create_icmp6_socket)
libbb/lib.a(create_icmp_socket.o)
                              networking/lib.a(ping.o) (create_icmp_socket)
libbb/lib.a(device_open.o)    sysklogd/lib.a(syslogd_and_logger.o) (device_open)
libbb/lib.a(execable.o)       miscutils/lib.a(chrt.o) (BB_EXECVP_or_die)
libbb/lib.a(fclose_nonstdin.o)
                              findutils/lib.a(grep.o) (fclose_if_not_stdin)
libbb/lib.a(fflush_stdout_and_exit.o)
                              miscutils/lib.a(chrt.o) (fflush_stdout_and_exit)
libbb/lib.a(find_mount_point.o)
                              util-linux/lib.a(mount.o) (find_mount_point)
libbb/lib.a(find_pid_by_name.o)
                              procps/lib.a(kill.o) (find_pid_by_name)
libbb/lib.a(get_line_from_file.o)
                              util-linux/lib.a(mount.o) (xmalloc_fgetline)
libbb/lib.a(getopt32.o)       miscutils/lib.a(chrt.o) (getopt32)
libbb/lib.a(human_readable.o)
                              coreutils/lib.a(dd.o) (make_human_readable_str)
libbb/lib.a(inet_common.o)    networking/lib.a(interface.o) (INET_resolve)
libbb/lib.a(info_msg.o)       networking/lib.a(traceroute.o) (bb_info_msg)
libbb/lib.a(inode_hash.o)     libbb/lib.a(copy_file.o) (is_in_ino_dev_hashtable)
libbb/lib.a(isdirectory.o)    coreutils/lib.a(ln.o) (is_directory)
libbb/lib.a(lineedit.o)       shell/lib.a(ash.o) (new_line_input_t)
libbb/lib.a(lineedit_ptr_hack.o)
                              libbb/lib.a(lineedit.o) (lineedit_ptr_to_statics)
libbb/lib.a(llist.o)          modutils/lib.a(modprobe.o) (llist_add_to)
libbb/lib.a(login.o)          util-linux/lib.a(mount.o) (sanitize_env_if_suid)
libbb/lib.a(make_directory.o)
                              coreutils/lib.a(mkdir.o) (bb_make_directory)
libbb/lib.a(makedev.o)        coreutils/lib.a(mknod.o) (bb_makedev)
libbb/lib.a(match_fstype.o)   util-linux/lib.a(mount.o) (match_fstype)
libbb/lib.a(mode_string.o)    coreutils/lib.a(ls.o) (bb_mode_string)
libbb/lib.a(mtab_file.o)      util-linux/lib.a(mount.o) (bb_path_mtab_file)
libbb/lib.a(parse_config.o)   modutils/lib.a(modprobe.o) (config_open2)
libbb/lib.a(parse_mode.o)     shell/lib.a(ash.o) (bb_parse_mode)
libbb/lib.a(perror_nomsg_and_die.o)
                              networking/lib.a(ftpgetput.o) (bb_perror_nomsg_and_die)
libbb/lib.a(printable_string.o)
                              coreutils/lib.a(ls.o) (printable_string)
libbb/lib.a(process_escape_sequence.o)
                              shell/lib.a(ash.o) (bb_process_escape_sequence)
libbb/lib.a(procps.o)         procps/lib.a(top.o) (clear_username_cache)
libbb/lib.a(read_key.o)       libbb/lib.a(lineedit.o) (read_key)
libbb/lib.a(read_printf.o)    shell/lib.a(ash.o) (nonblock_safe_read)
libbb/lib.a(recursive_action.o)
                              modutils/lib.a(depmod.o) (recursive_action)
libbb/lib.a(remove_file.o)    coreutils/lib.a(rm.o) (remove_file)
libbb/lib.a(safe_gethostname.o)
                              sysklogd/lib.a(syslogd_and_logger.o) (safe_gethostname)
libbb/lib.a(safe_poll.o)      networking/lib.a(tftp.o) (safe_poll)
libbb/lib.a(safe_strncpy.o)   shell/lib.a(math.o) (safe_strncpy)
libbb/lib.a(signals.o)        sysklogd/lib.a(syslogd_and_logger.o) (record_signo)
libbb/lib.a(simplify_path.o)  util-linux/lib.a(mount.o) (bb_simplify_path)
libbb/lib.a(skip_whitespace.o)
                              networking/lib.a(interface.o) (skip_whitespace)
libbb/lib.a(speed_table.o)    coreutils/lib.a(stty.o) (tty_baud_to_value)
libbb/lib.a(str_tolower.o)    networking/lib.a(wget.o) (str_tolower)
libbb/lib.a(strrstr.o)        modutils/lib.a(depmod.o) (strrstr)
libbb/lib.a(u_signal_names.o)
                              procps/lib.a(kill.o) (get_signum)
libbb/lib.a(udp_io.o)         networking/lib.a(traceroute.o) (recv_from_to)
libbb/lib.a(update_passwd.o)  loginutils/lib.a(deluser.o) (update_passwd)
libbb/lib.a(vfork_daemon_rexec.o)
                              sysklogd/lib.a(klogd.o) (bb_daemonize_or_rexec)
libbb/lib.a(wfopen.o)         networking/lib.a(interface.o) (fopen_or_warn)
libbb/lib.a(wfopen_input.o)   libbb/lib.a(parse_config.o) (fopen_or_warn_stdin)
libbb/lib.a(xatonum.o)        miscutils/lib.a(taskset.o) (xstrtoull_range)
libbb/lib.a(xconnect.o)       networking/lib.a(tftp.o) (setsockopt_reuseaddr)
libbb/lib.a(xgetcwd.o)        coreutils/lib.a(pwd.o) (xrealloc_getcwd_or_warn)
libbb/lib.a(xreadlink.o)      libbb/lib.a(procps.o) (xmalloc_readlink)
libbb/lib.a(xrealloc_vector.o)
                              procps/lib.a(top.o) (xrealloc_vector_helper)
libbb/lib.a(xregcomp.o)       coreutils/lib.a(expr.o) (xregcomp)
libbb/lib.a(ask_confirmation.o)
                              libbb/lib.a(copy_file.o) (bb_ask_confirmation)
libbb/lib.a(bb_qsort.o)       libbb/lib.a(lineedit.o) (qsort_string_vector)
libbb/lib.a(concat_subpath_file.o)
                              libbb/lib.a(copy_file.o) (concat_subpath_file)
libbb/lib.a(perror_nomsg.o)   libbb/lib.a(update_passwd.o) (bb_perror_nomsg)
/opt/toolchains/crosstools-arm-gcc-4.6-linux-3.4-uclibc-0.9.32-binutils-2.21-NPTL/usr/lib/gcc/arm-unknown-linux-uclibcgnueabi/4.6.2/libgcc.a(_udivsi3.o)
                              libbb/lib.a(xfuncs.o) (__aeabi_uidiv)
/opt/toolchains/crosstools-arm-gcc-4.6-linux-3.4-uclibc-0.9.32-binutils-2.21-NPTL/usr/lib/gcc/arm-unknown-linux-uclibcgnueabi/4.6.2/libgcc.a(_divsi3.o)
                              libbb/lib.a(time.o) (__aeabi_idiv)
/opt/toolchains/crosstools-arm-gcc-4.6-linux-3.4-uclibc-0.9.32-binutils-2.21-NPTL/usr/lib/gcc/arm-unknown-linux-uclibcgnueabi/4.6.2/libgcc.a(_lshrdi3.o)
                              shell/lib.a(shell_common.o) (__aeabi_llsr)
/opt/toolchains/crosstools-arm-gcc-4.6-linux-3.4-uclibc-0.9.32-binutils-2.21-NPTL/usr/lib/gcc/arm-unknown-linux-uclibcgnueabi/4.6.2/libgcc.a(_ashldi3.o)
                              miscutils/lib.a(taskset.o) (__aeabi_llsl)
/opt/toolchains/crosstools-arm-gcc-4.6-linux-3.4-uclibc-0.9.32-binutils-2.21-NPTL/usr/lib/gcc/arm-unknown-linux-uclibcgnueabi/4.6.2/libgcc.a(_arm_addsubdf3.o)
                              coreutils/lib.a(dd.o) (__aeabi_ul2d)
/opt/toolchains/crosstools-arm-gcc-4.6-linux-3.4-uclibc-0.9.32-binutils-2.21-NPTL/usr/lib/gcc/arm-unknown-linux-uclibcgnueabi/4.6.2/libgcc.a(_arm_muldivdf3.o)
                              coreutils/lib.a(dd.o) (__aeabi_ddiv)
/opt/toolchains/crosstools-arm-gcc-4.6-linux-3.4-uclibc-0.9.32-binutils-2.21-NPTL/usr/lib/gcc/arm-unknown-linux-uclibcgnueabi/4.6.2/libgcc.a(_aeabi_ldivmod.o)
                              util-linux/lib.a(more.o) (__aeabi_ldivmod)
/opt/toolchains/crosstools-arm-gcc-4.6-linux-3.4-uclibc-0.9.32-binutils-2.21-NPTL/usr/lib/gcc/arm-unknown-linux-uclibcgnueabi/4.6.2/libgcc.a(_aeabi_uldivmod.o)
                              miscutils/lib.a(flash_eraseall.o) (__aeabi_uldivmod)
/opt/toolchains/crosstools-arm-gcc-4.6-linux-3.4-uclibc-0.9.32-binutils-2.21-NPTL/usr/lib/gcc/arm-unknown-linux-uclibcgnueabi/4.6.2/libgcc.a(_dvmd_lnx.o)
                              /opt/toolchains/crosstools-arm-gcc-4.6-linux-3.4-uclibc-0.9.32-binutils-2.21-NPTL/usr/lib/gcc/arm-unknown-linux-uclibcgnueabi/4.6.2/libgcc.a(_udivsi3.o) (__aeabi_idiv0)
/opt/toolchains/crosstools-arm-gcc-4.6-linux-3.4-uclibc-0.9.32-binutils-2.21-NPTL/usr/lib/gcc/arm-unknown-linux-uclibcgnueabi/4.6.2/libgcc.a(_fixunsdfdi.o)
                              coreutils/lib.a(dd.o) (__aeabi_d2ulz)
/opt/toolchains/crosstools-arm-gcc-4.6-linux-3.4-uclibc-0.9.32-binutils-2.21-NPTL/usr/lib/gcc/arm-unknown-linux-uclibcgnueabi/4.6.2/libgcc.a(bpabi.o)
                              /opt/toolchains/crosstools-arm-gcc-4.6-linux-3.4-uclibc-0.9.32-binutils-2.21-NPTL/usr/lib/gcc/arm-unknown-linux-uclibcgnueabi/4.6.2/libgcc.a(_aeabi_ldivmod.o) (__gnu_ldivmod_helper)
/opt/toolchains/crosstools-arm-gcc-4.6-linux-3.4-uclibc-0.9.32-binutils-2.21-NPTL/usr/lib/gcc/arm-unknown-linux-uclibcgnueabi/4.6.2/libgcc.a(_arm_fixunsdfsi.o)
                              /opt/toolchains/crosstools-arm-gcc-4.6-linux-3.4-uclibc-0.9.32-binutils-2.21-NPTL/usr/lib/gcc/arm-unknown-linux-uclibcgnueabi/4.6.2/libgcc.a(_fixunsdfdi.o) (__aeabi_d2uiz)
/opt/toolchains/crosstools-arm-gcc-4.6-linux-3.4-uclibc-0.9.32-binutils-2.21-NPTL/usr/lib/gcc/arm-unknown-linux-uclibcgnueabi/4.6.2/libgcc.a(_divdi3.o)
                              /opt/toolchains/crosstools-arm-gcc-4.6-linux-3.4-uclibc-0.9.32-binutils-2.21-NPTL/usr/lib/gcc/arm-unknown-linux-uclibcgnueabi/4.6.2/libgcc.a(bpabi.o) (__divdi3)
/opt/toolchains/crosstools-arm-gcc-4.6-linux-3.4-uclibc-0.9.32-binutils-2.21-NPTL/usr/lib/gcc/arm-unknown-linux-uclibcgnueabi/4.6.2/libgcc.a(_udivdi3.o)
                              /opt/toolchains/crosstools-arm-gcc-4.6-linux-3.4-uclibc-0.9.32-binutils-2.21-NPTL/usr/lib/gcc/arm-unknown-linux-uclibcgnueabi/4.6.2/libgcc.a(bpabi.o) (__udivdi3)
/opt/toolchains/crosstools-arm-gcc-4.6-linux-3.4-uclibc-0.9.32-binutils-2.21-NPTL/usr/lib/gcc/arm-unknown-linux-uclibcgnueabi/4.6.2/libgcc_eh.a(unwind-arm.o)
                              /opt/toolchains/crosstools-arm-gcc-4.6-linux-3.4-uclibc-0.9.32-binutils-2.21-NPTL/usr/lib/gcc/arm-unknown-linux-uclibcgnueabi/4.6.2/libgcc.a(bpabi.o) (__aeabi_unwind_cpp_pr0)
/opt/toolchains/crosstools-arm-gcc-4.6-linux-3.4-uclibc-0.9.32-binutils-2.21-NPTL/usr/lib/gcc/arm-unknown-linux-uclibcgnueabi/4.6.2/libgcc_eh.a(libunwind.o)
                              /opt/toolchains/crosstools-arm-gcc-4.6-linux-3.4-uclibc-0.9.32-binutils-2.21-NPTL/usr/lib/gcc/arm-unknown-linux-uclibcgnueabi/4.6.2/libgcc_eh.a(unwind-arm.o) (restore_core_regs)
/opt/toolchains/crosstools-arm-gcc-4.6-linux-3.4-uclibc-0.9.32-binutils-2.21-NPTL/usr/lib/gcc/arm-unknown-linux-uclibcgnueabi/4.6.2/libgcc_eh.a(pr-support.o)
                              /opt/toolchains/crosstools-arm-gcc-4.6-linux-3.4-uclibc-0.9.32-binutils-2.21-NPTL/usr/lib/gcc/arm-unknown-linux-uclibcgnueabi/4.6.2/libgcc_eh.a(unwind-arm.o) (__gnu_unwind_execute)

Discarded input sections

 .data          0x0000000000000000        0x4 /opt/toolchains/crosstools-arm-gcc-4.6-linux-3.4-uclibc-0.9.32-binutils-2.21-NPTL/usr/arm-unknown-linux-uclibcgnueabi/sysroot/usr/lib/crt1.o
 .bss           0x0000000000000000        0x0 /opt/toolchains/crosstools-arm-gcc-4.6-linux-3.4-uclibc-0.9.32-binutils-2.21-NPTL/usr/arm-unknown-linux-uclibcgnueabi/sysroot/usr/lib/crt1.o
 .text          0x0000000000000000        0x0 /opt/toolchains/crosstools-arm-gcc-4.6-linux-3.4-uclibc-0.9.32-binutils-2.21-NPTL/usr/arm-unknown-linux-uclibcgnueabi/sysroot/usr/lib/crti.o
 .data          0x0000000000000000        0x0 /opt/toolchains/crosstools-arm-gcc-4.6-linux-3.4-uclibc-0.9.32-binutils-2.21-NPTL/usr/arm-unknown-linux-uclibcgnueabi/sysroot/usr/lib/crti.o
 .bss           0x0000000000000000        0x0 /opt/toolchains/crosstools-arm-gcc-4.6-linux-3.4-uclibc-0.9.32-binutils-2.21-NPTL/usr/arm-unknown-linux-uclibcgnueabi/sysroot/usr/lib/crti.o
 .data          0x0000000000000000        0x4 /opt/toolchains/crosstools-arm-gcc-4.6-linux-3.4-uclibc-0.9.32-binutils-2.21-NPTL/usr/lib/gcc/arm-unknown-linux-uclibcgnueabi/4.6.2/crtbegin.o
 .note.GNU-stack
                0x0000000000000000        0x0 /opt/toolchains/crosstools-arm-gcc-4.6-linux-3.4-uclibc-0.9.32-binutils-2.21-NPTL/usr/lib/gcc/arm-unknown-linux-uclibcgnueabi/4.6.2/crtbegin.o
 .text          0x0000000000000000        0x0 applets/built-in.o
 .data          0x0000000000000000        0x0 applets/built-in.o
 .bss           0x0000000000000000        0x0 applets/built-in.o
 .note.GNU-stack
                0x0000000000000000        0x0 applets/built-in.o
 .text          0x0000000000000000        0x0 libbb/lib.a(appletlib.o)
 .data          0x0000000000000000        0x0 libbb/lib.a(appletlib.o)
 .bss           0x0000000000000000        0x0 libbb/lib.a(appletlib.o)
 .note.GNU-stack
                0x0000000000000000        0x0 libbb/lib.a(appletlib.o)
 .text          0x0000000000000000        0x0 libbb/lib.a(bb_basename.o)
 .data          0x0000000000000000        0x0 libbb/lib.a(bb_basename.o)
 .bss           0x0000000000000000        0x0 libbb/lib.a(bb_basename.o)
 .note.GNU-stack
                0x0000000000000000        0x0 libbb/lib.a(bb_basename.o)
 .text          0x0000000000000000        0x0 libbb/lib.a(default_error_retval.o)
 .data          0x0000000000000000        0x0 libbb/lib.a(default_error_retval.o)
 .bss           0x0000000000000000        0x0 libbb/lib.a(default_error_retval.o)
 .note.GNU-stack
                0x0000000000000000        0x0 libbb/lib.a(default_error_retval.o)
 .text          0x0000000000000000        0x0 libbb/lib.a(get_last_path_component.o)
 .data          0x0000000000000000        0x0 libbb/lib.a(get_last_path_component.o)
 .bss           0x0000000000000000        0x0 libbb/lib.a(get_last_path_component.o)
 .note.GNU-stack
                0x0000000000000000        0x0 libbb/lib.a(get_last_path_component.o)
 .text          0x0000000000000000        0x0 libbb/lib.a(last_char_is.o)
 .data          0x0000000000000000        0x0 libbb/lib.a(last_char_is.o)
 .bss           0x0000000000000000        0x0 libbb/lib.a(last_char_is.o)
 .note.GNU-stack
                0x0000000000000000        0x0 libbb/lib.a(last_char_is.o)
 .text          0x0000000000000000        0x0 libbb/lib.a(messages.o)
 .data          0x0000000000000000        0x0 libbb/lib.a(messages.o)
 .bss           0x0000000000000000        0x0 libbb/lib.a(messages.o)
 .rodata.bb_msg_unknown
                0x0000000000000000        0xa libbb/lib.a(messages.o)
 .rodata.bb_path_shadow_file
                0x0000000000000000        0xc libbb/lib.a(messages.o)
 .rodata.bb_path_motd_file
                0x0000000000000000        0xa libbb/lib.a(messages.o)
 .rodata.bb_path_wtmp_file
                0x0000000000000000        0xe libbb/lib.a(messages.o)
 .rodata.bb_path_gshadow_file
                0x0000000000000000        0xd libbb/lib.a(messages.o)
 .rodata.bb_busybox_exec_path
                0x0000000000000000        0xf libbb/lib.a(messages.o)
 .note.GNU-stack
                0x0000000000000000        0x0 libbb/lib.a(messages.o)
 .text          0x0000000000000000        0x0 libbb/lib.a(ptr_to_globals.o)
 .data          0x0000000000000000        0x0 libbb/lib.a(ptr_to_globals.o)
 .bss           0x0000000000000000        0x0 libbb/lib.a(ptr_to_globals.o)
 .note.GNU-stack
                0x0000000000000000        0x0 libbb/lib.a(ptr_to_globals.o)
 .text          0x0000000000000000        0x0 libbb/lib.a(xfunc_die.o)
 .data          0x0000000000000000        0x0 libbb/lib.a(xfunc_die.o)
 .bss           0x0000000000000000        0x0 libbb/lib.a(xfunc_die.o)
 .note.GNU-stack
                0x0000000000000000        0x0 libbb/lib.a(xfunc_die.o)
 .text          0x0000000000000000        0x0 libbb/lib.a(xfuncs.o)
 .data          0x0000000000000000        0x0 libbb/lib.a(xfuncs.o)
 .bss           0x0000000000000000        0x0 libbb/lib.a(xfuncs.o)
 .text.ndelay_on
                0x0000000000000000       0x24 libbb/lib.a(xfuncs.o)
 .text.bin2hex  0x0000000000000000       0x54 libbb/lib.a(xfuncs.o)
 .text.hex2bin  0x0000000000000000       0xf4 libbb/lib.a(xfuncs.o)
 .text.bb_putchar_stderr
                0x0000000000000000       0x1c libbb/lib.a(xfuncs.o)
 .text.full_write1_str
                0x0000000000000000       0x20 libbb/lib.a(xfuncs.o)
 .text.wait4pid
                0x0000000000000000       0x4c libbb/lib.a(xfuncs.o)
 .note.GNU-stack
                0x0000000000000000        0x0 libbb/lib.a(xfuncs.o)
 .text          0x0000000000000000        0x0 libbb/lib.a(xfuncs_printf.o)
 .data          0x0000000000000000        0x0 libbb/lib.a(xfuncs_printf.o)
 .bss           0x0000000000000000        0x0 libbb/lib.a(xfuncs_printf.o)
 .text.xrename  0x0000000000000000       0x30 libbb/lib.a(xfuncs_printf.o)
 .text.rename_or_warn
                0x0000000000000000       0x38 libbb/lib.a(xfuncs_printf.o)
 .text.xpipe    0x0000000000000000       0x20 libbb/lib.a(xfuncs_printf.o)
 .text.xwrite_str
                0x0000000000000000       0x28 libbb/lib.a(xfuncs_printf.o)
 .text.die_if_ferror
                0x0000000000000000       0x28 libbb/lib.a(xfuncs_printf.o)
 .text.die_if_ferror_stdout
                0x0000000000000000       0x2c libbb/lib.a(xfuncs_printf.o)
 .text.xprint_and_close_file
                0x0000000000000000       0x40 libbb/lib.a(xfuncs_printf.o)
 .text.bb_unsetenv
                0x0000000000000000       0x40 libbb/lib.a(xfuncs_printf.o)
 .text.bb_unsetenv_and_free
                0x0000000000000000       0x18 libbb/lib.a(xfuncs_printf.o)
 .text.xchroot  0x0000000000000000       0x28 libbb/lib.a(xfuncs_printf.o)
 .text.xlisten  0x0000000000000000       0x20 libbb/lib.a(xfuncs_printf.o)
 .text.selinux_or_die
                0x0000000000000000       0x14 libbb/lib.a(xfuncs_printf.o)
 .text.ioctl_or_perror
                0x0000000000000000       0x50 libbb/lib.a(xfuncs_printf.o)
 .text.generate_uuid
                0x0000000000000000       0xa8 libbb/lib.a(xfuncs_printf.o)
 .note.GNU-stack
                0x0000000000000000        0x0 libbb/lib.a(xfuncs_printf.o)
 .text          0x0000000000000000        0x0 libbb/lib.a(copyfd.o)
 .data          0x0000000000000000        0x0 libbb/lib.a(copyfd.o)
 .bss           0x0000000000000000        0x0 libbb/lib.a(copyfd.o)
 .text.bb_copyfd_size
                0x0000000000000000       0x28 libbb/lib.a(copyfd.o)
 .text.bb_copyfd_exact_size
                0x0000000000000000       0x64 libbb/lib.a(copyfd.o)
 .rodata.str1.1
                0x0000000000000000        0xb libbb/lib.a(copyfd.o)
 .note.GNU-stack
                0x0000000000000000        0x0 libbb/lib.a(copyfd.o)
 .text          0x0000000000000000        0x0 libbb/lib.a(full_write.o)
 .data          0x0000000000000000        0x0 libbb/lib.a(full_write.o)
 .bss           0x0000000000000000        0x0 libbb/lib.a(full_write.o)
 .note.GNU-stack
                0x0000000000000000        0x0 libbb/lib.a(full_write.o)
 .text          0x0000000000000000        0x0 libbb/lib.a(perror_msg.o)
 .data          0x0000000000000000        0x0 libbb/lib.a(perror_msg.o)
 .bss           0x0000000000000000        0x0 libbb/lib.a(perror_msg.o)
 .note.GNU-stack
                0x0000000000000000        0x0 libbb/lib.a(perror_msg.o)
 .text          0x0000000000000000        0x0 libbb/lib.a(read.o)
 .data          0x0000000000000000        0x0 libbb/lib.a(read.o)
 .bss           0x0000000000000000        0x0 libbb/lib.a(read.o)
 .note.GNU-stack
                0x0000000000000000        0x0 libbb/lib.a(read.o)
 .text          0x0000000000000000        0x0 libbb/lib.a(safe_write.o)
 .data          0x0000000000000000        0x0 libbb/lib.a(safe_write.o)
 .bss           0x0000000000000000        0x0 libbb/lib.a(safe_write.o)
 .note.GNU-stack
                0x0000000000000000        0x0 libbb/lib.a(safe_write.o)
 .text          0x0000000000000000        0x0 libbb/lib.a(time.o)
 .data          0x0000000000000000        0x0 libbb/lib.a(time.o)
 .bss           0x0000000000000000        0x0 libbb/lib.a(time.o)
 .text.monotonic_ns
                0x0000000000000000       0x3c libbb/lib.a(time.o)
 .note.GNU-stack
                0x0000000000000000        0x0 libbb/lib.a(time.o)
 .text          0x0000000000000000        0x0 libbb/lib.a(verror_msg.o)
 .data          0x0000000000000000        0x0 libbb/lib.a(verror_msg.o)
 .bss           0x0000000000000000        0x0 libbb/lib.a(verror_msg.o)
 .note.GNU-stack
                0x0000000000000000        0x0 libbb/lib.a(verror_msg.o)
 .text          0x0000000000000000        0x0 libbb/lib.a(bb_strtonum.o)
 .data          0x0000000000000000        0x0 libbb/lib.a(bb_strtonum.o)
 .bss           0x0000000000000000        0x0 libbb/lib.a(bb_strtonum.o)
 .text.bb_strtoll
                0x0000000000000000       0x6c libbb/lib.a(bb_strtonum.o)
 .note.GNU-stack
                0x0000000000000000        0x0 libbb/lib.a(bb_strtonum.o)
 .text          0x0000000000000000        0x0 loginutils/lib.a(deluser.o)
 .data          0x0000000000000000        0x0 loginutils/lib.a(deluser.o)
 .bss           0x0000000000000000        0x0 loginutils/lib.a(deluser.o)
 .note.GNU-stack
                0x0000000000000000        0x0 loginutils/lib.a(deluser.o)
 .text          0x0000000000000000        0x0 miscutils/lib.a(chrt.o)
 .data          0x0000000000000000        0x0 miscutils/lib.a(chrt.o)
 .bss           0x0000000000000000        0x0 miscutils/lib.a(chrt.o)
 .note.GNU-stack
                0x0000000000000000        0x0 miscutils/lib.a(chrt.o)
 .text          0x0000000000000000        0x0 miscutils/lib.a(flash_eraseall.o)
 .data          0x0000000000000000        0x0 miscutils/lib.a(flash_eraseall.o)
 .bss           0x0000000000000000        0x0 miscutils/lib.a(flash_eraseall.o)
 .note.GNU-stack
                0x0000000000000000        0x0 miscutils/lib.a(flash_eraseall.o)
 .text          0x0000000000000000        0x0 miscutils/lib.a(sysinfo.o)
 .data          0x0000000000000000        0x0 miscutils/lib.a(sysinfo.o)
 .bss           0x0000000000000000        0x0 miscutils/lib.a(sysinfo.o)
 .note.GNU-stack
                0x0000000000000000        0x0 miscutils/lib.a(sysinfo.o)
 .text          0x0000000000000000        0x0 miscutils/lib.a(taskset.o)
 .data          0x0000000000000000        0x0 miscutils/lib.a(taskset.o)
 .bss           0x0000000000000000        0x0 miscutils/lib.a(taskset.o)
 .note.GNU-stack
                0x0000000000000000        0x0 miscutils/lib.a(taskset.o)
 .text          0x0000000000000000        0x0 modutils/lib.a(depmod.o)
 .data          0x0000000000000000        0x0 modutils/lib.a(depmod.o)
 .bss           0x0000000000000000        0x0 modutils/lib.a(depmod.o)
 .note.GNU-stack
                0x0000000000000000        0x0 modutils/lib.a(depmod.o)
 .text          0x0000000000000000        0x0 modutils/lib.a(insmod.o)
 .data          0x0000000000000000        0x0 modutils/lib.a(insmod.o)
 .bss           0x0000000000000000        0x0 modutils/lib.a(insmod.o)
 .note.GNU-stack
                0x0000000000000000        0x0 modutils/lib.a(insmod.o)
 .text          0x0000000000000000        0x0 modutils/lib.a(modprobe.o)
 .data          0x0000000000000000        0x0 modutils/lib.a(modprobe.o)
 .bss           0x0000000000000000        0x0 modutils/lib.a(modprobe.o)
 .note.GNU-stack
                0x0000000000000000        0x0 modutils/lib.a(modprobe.o)
 .text          0x0000000000000000        0x0 modutils/lib.a(modutils.o)
 .data          0x0000000000000000        0x0 modutils/lib.a(modutils.o)
 .bss           0x0000000000000000        0x0 modutils/lib.a(modutils.o)
 .text.replace  0x0000000000000000       0x1c modutils/lib.a(modutils.o)
 .text.replace_underscores
                0x0000000000000000       0x1c modutils/lib.a(modutils.o)
 .note.GNU-stack
                0x0000000000000000        0x0 modutils/lib.a(modutils.o)
 .text          0x0000000000000000        0x0 modutils/lib.a(rmmod.o)
 .data          0x0000000000000000        0x0 modutils/lib.a(rmmod.o)
 .bss           0x0000000000000000        0x0 modutils/lib.a(rmmod.o)
 .note.GNU-stack
                0x0000000000000000        0x0 modutils/lib.a(rmmod.o)
 .text          0x0000000000000000        0x0 networking/lib.a(ftpgetput.o)
 .data          0x0000000000000000        0x0 networking/lib.a(ftpgetput.o)
 .bss           0x0000000000000000        0x0 networking/lib.a(ftpgetput.o)
 .note.GNU-stack
                0x0000000000000000        0x0 networking/lib.a(ftpgetput.o)
 .text          0x0000000000000000        0x0 networking/lib.a(ifconfig.o)
 .data          0x0000000000000000        0x0 networking/lib.a(ifconfig.o)
 .bss           0x0000000000000000        0x0 networking/lib.a(ifconfig.o)
 .note.GNU-stack
                0x0000000000000000        0x0 networking/lib.a(ifconfig.o)
 .text          0x0000000000000000        0x0 networking/lib.a(interface.o)
 .data          0x0000000000000000        0x0 networking/lib.a(interface.o)
 .bss           0x0000000000000000        0x0 networking/lib.a(interface.o)
 .text.get_aftype
                0x0000000000000000       0x40 networking/lib.a(interface.o)
 .text.get_hwtype
                0x0000000000000000       0x40 networking/lib.a(interface.o)
 .note.GNU-stack
                0x0000000000000000        0x0 networking/lib.a(interface.o)
 .text          0x0000000000000000        0x0 networking/lib.a(nc.o)
 .data          0x0000000000000000        0x0 networking/lib.a(nc.o)
 .bss           0x0000000000000000        0x0 networking/lib.a(nc.o)
 .note.GNU-stack
                0x0000000000000000        0x0 networking/lib.a(nc.o)
 .text          0x0000000000000000        0x0 networking/lib.a(ping.o)
 .data          0x0000000000000000        0x0 networking/lib.a(ping.o)
 .bss           0x0000000000000000        0x0 networking/lib.a(ping.o)
 .note.GNU-stack
                0x0000000000000000        0x0 networking/lib.a(ping.o)
 .text          0x0000000000000000        0x0 networking/lib.a(route.o)
 .data          0x0000000000000000        0x0 networking/lib.a(route.o)
 .bss           0x0000000000000000        0x0 networking/lib.a(route.o)
 .note.GNU-stack
                0x0000000000000000        0x0 networking/lib.a(route.o)
 .text          0x0000000000000000        0x0 networking/lib.a(sendarp.o)
 .data          0x0000000000000000        0x0 networking/lib.a(sendarp.o)
 .bss           0x0000000000000000        0x0 networking/lib.a(sendarp.o)
 .note.GNU-stack
                0x0000000000000000        0x0 networking/lib.a(sendarp.o)
 .text          0x0000000000000000        0x0 networking/lib.a(tftp.o)
 .data          0x0000000000000000        0x0 networking/lib.a(tftp.o)
 .bss           0x0000000000000000        0x0 networking/lib.a(tftp.o)
 .note.GNU-stack
                0x0000000000000000        0x0 networking/lib.a(tftp.o)
 .text          0x0000000000000000        0x0 networking/lib.a(tftpd.o)
 .data          0x0000000000000000        0x0 networking/lib.a(tftpd.o)
 .bss           0x0000000000000000        0x0 networking/lib.a(tftpd.o)
 .note.GNU-stack
                0x0000000000000000        0x0 networking/lib.a(tftpd.o)
 .text          0x0000000000000000        0x0 networking/lib.a(traceroute.o)
 .data          0x0000000000000000        0x0 networking/lib.a(traceroute.o)
 .bss           0x0000000000000000        0x0 networking/lib.a(traceroute.o)
 .note.GNU-stack
                0x0000000000000000        0x0 networking/lib.a(traceroute.o)
 .text          0x0000000000000000        0x0 networking/lib.a(vconfig.o)
 .data          0x0000000000000000        0x0 networking/lib.a(vconfig.o)
 .bss           0x0000000000000000        0x0 networking/lib.a(vconfig.o)
 .note.GNU-stack
                0x0000000000000000        0x0 networking/lib.a(vconfig.o)
 .text          0x0000000000000000        0x0 networking/lib.a(wget.o)
 .data          0x0000000000000000        0x0 networking/lib.a(wget.o)
 .bss           0x0000000000000000        0x0 networking/lib.a(wget.o)
 .note.GNU-stack
                0x0000000000000000        0x0 networking/lib.a(wget.o)
 .text          0x0000000000000000        0x0 procps/lib.a(kill.o)
 .data          0x0000000000000000        0x0 procps/lib.a(kill.o)
 .bss           0x0000000000000000        0x0 procps/lib.a(kill.o)
 .note.GNU-stack
                0x0000000000000000        0x0 procps/lib.a(kill.o)
 .text          0x0000000000000000        0x0 procps/lib.a(ps.o)
 .data          0x0000000000000000        0x0 procps/lib.a(ps.o)
 .bss           0x0000000000000000        0x0 procps/lib.a(ps.o)
 .note.GNU-stack
                0x0000000000000000        0x0 procps/lib.a(ps.o)
 .text          0x0000000000000000        0x0 procps/lib.a(top.o)
 .data          0x0000000000000000        0x0 procps/lib.a(top.o)
 .bss           0x0000000000000000        0x0 procps/lib.a(top.o)
 .note.GNU-stack
                0x0000000000000000        0x0 procps/lib.a(top.o)
 .text          0x0000000000000000        0x0 shell/lib.a(ash.o)
 .data          0x0000000000000000        0x0 shell/lib.a(ash.o)
 .bss           0x0000000000000000        0x0 shell/lib.a(ash.o)
 .note.GNU-stack
                0x0000000000000000        0x0 shell/lib.a(ash.o)
 .text          0x0000000000000000        0x0 shell/lib.a(ash_ptr_hack.o)
 .data          0x0000000000000000        0x0 shell/lib.a(ash_ptr_hack.o)
 .bss           0x0000000000000000        0x0 shell/lib.a(ash_ptr_hack.o)
 .note.GNU-stack
                0x0000000000000000        0x0 shell/lib.a(ash_ptr_hack.o)
 .text          0x0000000000000000        0x0 shell/lib.a(math.o)
 .data          0x0000000000000000        0x0 shell/lib.a(math.o)
 .bss           0x0000000000000000        0x0 shell/lib.a(math.o)
 .note.GNU-stack
                0x0000000000000000        0x0 shell/lib.a(math.o)
 .text          0x0000000000000000        0x0 shell/lib.a(shell_common.o)
 .data          0x0000000000000000        0x0 shell/lib.a(shell_common.o)
 .bss           0x0000000000000000        0x0 shell/lib.a(shell_common.o)
 .note.GNU-stack
                0x0000000000000000        0x0 shell/lib.a(shell_common.o)
 .text          0x0000000000000000        0x0 sysklogd/lib.a(klogd.o)
 .data          0x0000000000000000        0x0 sysklogd/lib.a(klogd.o)
 .bss           0x0000000000000000        0x0 sysklogd/lib.a(klogd.o)
 .note.GNU-stack
                0x0000000000000000        0x0 sysklogd/lib.a(klogd.o)
 .text          0x0000000000000000        0x0 sysklogd/lib.a(logread.o)
 .data          0x0000000000000000        0x0 sysklogd/lib.a(logread.o)
 .bss           0x0000000000000000        0x0 sysklogd/lib.a(logread.o)
 .note.GNU-stack
                0x0000000000000000        0x0 sysklogd/lib.a(logread.o)
 .text          0x0000000000000000        0x0 sysklogd/lib.a(syslogd_and_logger.o)
 .data          0x0000000000000000        0x0 sysklogd/lib.a(syslogd_and_logger.o)
 .bss           0x0000000000000000        0x0 sysklogd/lib.a(syslogd_and_logger.o)
 .note.GNU-stack
                0x0000000000000000        0x0 sysklogd/lib.a(syslogd_and_logger.o)
 .text          0x0000000000000000        0x0 util-linux/lib.a(dmesg.o)
 .data          0x0000000000000000        0x0 util-linux/lib.a(dmesg.o)
 .bss           0x0000000000000000        0x0 util-linux/lib.a(dmesg.o)
 .note.GNU-stack
                0x0000000000000000        0x0 util-linux/lib.a(dmesg.o)
 .text          0x0000000000000000        0x0 util-linux/lib.a(more.o)
 .data          0x0000000000000000        0x0 util-linux/lib.a(more.o)
 .bss           0x0000000000000000        0x0 util-linux/lib.a(more.o)
 .note.GNU-stack
                0x0000000000000000        0x0 util-linux/lib.a(more.o)
 .text          0x0000000000000000        0x0 util-linux/lib.a(mount.o)
 .data          0x0000000000000000        0x0 util-linux/lib.a(mount.o)
 .bss           0x0000000000000000        0x0 util-linux/lib.a(mount.o)
 .note.GNU-stack
                0x0000000000000000        0x0 util-linux/lib.a(mount.o)
 .text          0x0000000000000000        0x0 util-linux/lib.a(umount.o)
 .data          0x0000000000000000        0x0 util-linux/lib.a(umount.o)
 .bss           0x0000000000000000        0x0 util-linux/lib.a(umount.o)
 .note.GNU-stack
                0x0000000000000000        0x0 util-linux/lib.a(umount.o)
 .text          0x0000000000000000        0x0 archival/lib.a(bbunzip.o)
 .data          0x0000000000000000        0x0 archival/lib.a(bbunzip.o)
 .bss           0x0000000000000000        0x0 archival/lib.a(bbunzip.o)
 .text.append_ext
                0x0000000000000000       0x1c archival/lib.a(bbunzip.o)
 .note.GNU-stack
                0x0000000000000000        0x0 archival/lib.a(bbunzip.o)
 .text          0x0000000000000000        0x0 archival/libunarchive/lib.a(decompress_bunzip2.o)
 .data          0x0000000000000000        0x0 archival/libunarchive/lib.a(decompress_bunzip2.o)
 .bss           0x0000000000000000        0x0 archival/libunarchive/lib.a(decompress_bunzip2.o)
 .text.unpack_bz2_stream
                0x0000000000000000       0xe8 archival/libunarchive/lib.a(decompress_bunzip2.o)
 .text.unpack_bz2_stream_prime
                0x0000000000000000       0x48 archival/libunarchive/lib.a(decompress_bunzip2.o)
 .rodata.str1.1
                0x0000000000000000       0x34 archival/libunarchive/lib.a(decompress_bunzip2.o)
 .note.GNU-stack
                0x0000000000000000        0x0 archival/libunarchive/lib.a(decompress_bunzip2.o)
 .text          0x0000000000000000        0x0 archival/libunarchive/lib.a(decompress_unzip.o)
 .data          0x0000000000000000        0x0 archival/libunarchive/lib.a(decompress_unzip.o)
 .bss           0x0000000000000000        0x0 archival/libunarchive/lib.a(decompress_unzip.o)
 .text.inflate_unzip
                0x0000000000000000       0x70 archival/libunarchive/lib.a(decompress_unzip.o)
 .text.unpack_gz_stream
                0x0000000000000000        0x8 archival/libunarchive/lib.a(decompress_unzip.o)
 .note.GNU-stack
                0x0000000000000000        0x0 archival/libunarchive/lib.a(decompress_unzip.o)
 .text          0x0000000000000000        0x0 coreutils/lib.a(cat.o)
 .data          0x0000000000000000        0x0 coreutils/lib.a(cat.o)
 .bss           0x0000000000000000        0x0 coreutils/lib.a(cat.o)
 .note.GNU-stack
                0x0000000000000000        0x0 coreutils/lib.a(cat.o)
 .text          0x0000000000000000        0x0 coreutils/lib.a(chmod.o)
 .data          0x0000000000000000        0x0 coreutils/lib.a(chmod.o)
 .bss           0x0000000000000000        0x0 coreutils/lib.a(chmod.o)
 .note.GNU-stack
                0x0000000000000000        0x0 coreutils/lib.a(chmod.o)
 .text          0x0000000000000000        0x0 coreutils/lib.a(cp.o)
 .data          0x0000000000000000        0x0 coreutils/lib.a(cp.o)
 .bss           0x0000000000000000        0x0 coreutils/lib.a(cp.o)
 .note.GNU-stack
                0x0000000000000000        0x0 coreutils/lib.a(cp.o)
 .text          0x0000000000000000        0x0 coreutils/lib.a(date.o)
 .data          0x0000000000000000        0x0 coreutils/lib.a(date.o)
 .bss           0x0000000000000000        0x0 coreutils/lib.a(date.o)
 .note.GNU-stack
                0x0000000000000000        0x0 coreutils/lib.a(date.o)
 .text          0x0000000000000000        0x0 coreutils/lib.a(dd.o)
 .data          0x0000000000000000        0x0 coreutils/lib.a(dd.o)
 .bss           0x0000000000000000        0x0 coreutils/lib.a(dd.o)
 .note.GNU-stack
                0x0000000000000000        0x0 coreutils/lib.a(dd.o)
 .text          0x0000000000000000        0x0 coreutils/lib.a(df.o)
 .data          0x0000000000000000        0x0 coreutils/lib.a(df.o)
 .bss           0x0000000000000000        0x0 coreutils/lib.a(df.o)
 .note.GNU-stack
                0x0000000000000000        0x0 coreutils/lib.a(df.o)
 .text          0x0000000000000000        0x0 coreutils/lib.a(echo.o)
 .data          0x0000000000000000        0x0 coreutils/lib.a(echo.o)
 .bss           0x0000000000000000        0x0 coreutils/lib.a(echo.o)
 .note.GNU-stack
                0x0000000000000000        0x0 coreutils/lib.a(echo.o)
 .text          0x0000000000000000        0x0 coreutils/lib.a(expr.o)
 .data          0x0000000000000000        0x0 coreutils/lib.a(expr.o)
 .bss           0x0000000000000000        0x0 coreutils/lib.a(expr.o)
 .note.GNU-stack
                0x0000000000000000        0x0 coreutils/lib.a(expr.o)
 .text          0x0000000000000000        0x0 coreutils/lib.a(false.o)
 .data          0x0000000000000000        0x0 coreutils/lib.a(false.o)
 .bss           0x0000000000000000        0x0 coreutils/lib.a(false.o)
 .note.GNU-stack
                0x0000000000000000        0x0 coreutils/lib.a(false.o)
 .text          0x0000000000000000        0x0 coreutils/lib.a(ln.o)
 .data          0x0000000000000000        0x0 coreutils/lib.a(ln.o)
 .bss           0x0000000000000000        0x0 coreutils/lib.a(ln.o)
 .note.GNU-stack
                0x0000000000000000        0x0 coreutils/lib.a(ln.o)
 .text          0x0000000000000000        0x0 coreutils/lib.a(ls.o)
 .data          0x0000000000000000        0x0 coreutils/lib.a(ls.o)
 .bss           0x0000000000000000        0x0 coreutils/lib.a(ls.o)
 .note.GNU-stack
                0x0000000000000000        0x0 coreutils/lib.a(ls.o)
 .text          0x0000000000000000        0x0 coreutils/lib.a(mkdir.o)
 .data          0x0000000000000000        0x0 coreutils/lib.a(mkdir.o)
 .bss           0x0000000000000000        0x0 coreutils/lib.a(mkdir.o)
 .note.GNU-stack
                0x0000000000000000        0x0 coreutils/lib.a(mkdir.o)
 .text          0x0000000000000000        0x0 coreutils/lib.a(mknod.o)
 .data          0x0000000000000000        0x0 coreutils/lib.a(mknod.o)
 .bss           0x0000000000000000        0x0 coreutils/lib.a(mknod.o)
 .note.GNU-stack
                0x0000000000000000        0x0 coreutils/lib.a(mknod.o)
 .text          0x0000000000000000        0x0 coreutils/lib.a(pwd.o)
 .data          0x0000000000000000        0x0 coreutils/lib.a(pwd.o)
 .bss           0x0000000000000000        0x0 coreutils/lib.a(pwd.o)
 .note.GNU-stack
                0x0000000000000000        0x0 coreutils/lib.a(pwd.o)
 .text          0x0000000000000000        0x0 coreutils/lib.a(rm.o)
 .data          0x0000000000000000        0x0 coreutils/lib.a(rm.o)
 .bss           0x0000000000000000        0x0 coreutils/lib.a(rm.o)
 .note.GNU-stack
                0x0000000000000000        0x0 coreutils/lib.a(rm.o)
 .text          0x0000000000000000        0x0 coreutils/lib.a(sleep.o)
 .data          0x0000000000000000        0x0 coreutils/lib.a(sleep.o)
 .bss           0x0000000000000000        0x0 coreutils/lib.a(sleep.o)
 .note.GNU-stack
                0x0000000000000000        0x0 coreutils/lib.a(sleep.o)
 .text          0x0000000000000000        0x0 coreutils/lib.a(stty.o)
 .data          0x0000000000000000        0x0 coreutils/lib.a(stty.o)
 .bss           0x0000000000000000        0x0 coreutils/lib.a(stty.o)
 .note.GNU-stack
                0x0000000000000000        0x0 coreutils/lib.a(stty.o)
 .text          0x0000000000000000        0x0 coreutils/lib.a(sync.o)
 .data          0x0000000000000000        0x0 coreutils/lib.a(sync.o)
 .bss           0x0000000000000000        0x0 coreutils/lib.a(sync.o)
 .note.GNU-stack
                0x0000000000000000        0x0 coreutils/lib.a(sync.o)
 .text          0x0000000000000000        0x0 coreutils/lib.a(test.o)
 .data          0x0000000000000000        0x0 coreutils/lib.a(test.o)
 .bss           0x0000000000000000        0x0 coreutils/lib.a(test.o)
 .note.GNU-stack
                0x0000000000000000        0x0 coreutils/lib.a(test.o)
 .text          0x0000000000000000        0x0 coreutils/lib.a(test_ptr_hack.o)
 .data          0x0000000000000000        0x0 coreutils/lib.a(test_ptr_hack.o)
 .bss           0x0000000000000000        0x0 coreutils/lib.a(test_ptr_hack.o)
 .note.GNU-stack
                0x0000000000000000        0x0 coreutils/lib.a(test_ptr_hack.o)
 .text          0x0000000000000000        0x0 coreutils/lib.a(true.o)
 .data          0x0000000000000000        0x0 coreutils/lib.a(true.o)
 .bss           0x0000000000000000        0x0 coreutils/lib.a(true.o)
 .note.GNU-stack
                0x0000000000000000        0x0 coreutils/lib.a(true.o)
 .text          0x0000000000000000        0x0 coreutils/lib.a(tty.o)
 .data          0x0000000000000000        0x0 coreutils/lib.a(tty.o)
 .bss           0x0000000000000000        0x0 coreutils/lib.a(tty.o)
 .note.GNU-stack
                0x0000000000000000        0x0 coreutils/lib.a(tty.o)
 .text          0x0000000000000000        0x0 coreutils/libcoreutils/lib.a(cp_mv_stat.o)
 .data          0x0000000000000000        0x0 coreutils/libcoreutils/lib.a(cp_mv_stat.o)
 .bss           0x0000000000000000        0x0 coreutils/libcoreutils/lib.a(cp_mv_stat.o)
 .note.GNU-stack
                0x0000000000000000        0x0 coreutils/libcoreutils/lib.a(cp_mv_stat.o)
 .text          0x0000000000000000        0x0 coreutils/libcoreutils/lib.a(getopt_mk_fifo_nod.o)
 .data          0x0000000000000000        0x0 coreutils/libcoreutils/lib.a(getopt_mk_fifo_nod.o)
 .bss           0x0000000000000000        0x0 coreutils/libcoreutils/lib.a(getopt_mk_fifo_nod.o)
 .note.GNU-stack
                0x0000000000000000        0x0 coreutils/libcoreutils/lib.a(getopt_mk_fifo_nod.o)
 .text          0x0000000000000000        0x0 findutils/lib.a(grep.o)
 .data          0x0000000000000000        0x0 findutils/lib.a(grep.o)
 .bss           0x0000000000000000        0x0 findutils/lib.a(grep.o)
 .note.GNU-stack
                0x0000000000000000        0x0 findutils/lib.a(grep.o)
 .text          0x0000000000000000        0x0 init/lib.a(halt.o)
 .data          0x0000000000000000        0x0 init/lib.a(halt.o)
 .bss           0x0000000000000000        0x0 init/lib.a(halt.o)
 .note.GNU-stack
                0x0000000000000000        0x0 init/lib.a(halt.o)
 .text          0x0000000000000000        0x0 init/lib.a(init.o)
 .data          0x0000000000000000        0x0 init/lib.a(init.o)
 .bss           0x0000000000000000        0x0 init/lib.a(init.o)
 .note.GNU-stack
                0x0000000000000000        0x0 init/lib.a(init.o)
 .text          0x0000000000000000        0x0 libbb/lib.a(bb_pwd.o)
 .data          0x0000000000000000        0x0 libbb/lib.a(bb_pwd.o)
 .bss           0x0000000000000000        0x0 libbb/lib.a(bb_pwd.o)
 .text.xgetpwnam
                0x0000000000000000       0x28 libbb/lib.a(bb_pwd.o)
 .text.xgetgrnam
                0x0000000000000000       0x28 libbb/lib.a(bb_pwd.o)
 .text.xgetpwuid
                0x0000000000000000       0x28 libbb/lib.a(bb_pwd.o)
 .text.xgetgrgid
                0x0000000000000000       0x28 libbb/lib.a(bb_pwd.o)
 .text.xuid2uname
                0x0000000000000000       0x10 libbb/lib.a(bb_pwd.o)
 .text.xgid2group
                0x0000000000000000       0x10 libbb/lib.a(bb_pwd.o)
 .text.xuname2uid
                0x0000000000000000       0x10 libbb/lib.a(bb_pwd.o)
 .text.xgroup2gid
                0x0000000000000000       0x10 libbb/lib.a(bb_pwd.o)
 .text.get_ug_id
                0x0000000000000000       0x3c libbb/lib.a(bb_pwd.o)
 .rodata.str1.1
                0x0000000000000000       0x3f libbb/lib.a(bb_pwd.o)
 .note.GNU-stack
                0x0000000000000000        0x0 libbb/lib.a(bb_pwd.o)
 .text          0x0000000000000000        0x0 libbb/lib.a(compare_string_array.o)
 .data          0x0000000000000000        0x0 libbb/lib.a(compare_string_array.o)
 .bss           0x0000000000000000        0x0 libbb/lib.a(compare_string_array.o)
 .text.index_in_str_array
                0x0000000000000000       0x40 libbb/lib.a(compare_string_array.o)
 .note.GNU-stack
                0x0000000000000000        0x0 libbb/lib.a(compare_string_array.o)
 .text          0x0000000000000000        0x0 libbb/lib.a(concat_path_file.o)
 .data          0x0000000000000000        0x0 libbb/lib.a(concat_path_file.o)
 .bss           0x0000000000000000        0x0 libbb/lib.a(concat_path_file.o)
 .note.GNU-stack
                0x0000000000000000        0x0 libbb/lib.a(concat_path_file.o)
 .text          0x0000000000000000        0x0 libbb/lib.a(copy_file.o)
 .data          0x0000000000000000        0x0 libbb/lib.a(copy_file.o)
 .bss           0x0000000000000000        0x0 libbb/lib.a(copy_file.o)
 .note.GNU-stack
                0x0000000000000000        0x0 libbb/lib.a(copy_file.o)
 .text          0x0000000000000000        0x0 libbb/lib.a(crc32.o)
 .data          0x0000000000000000        0x0 libbb/lib.a(crc32.o)
 .bss           0x0000000000000000        0x0 libbb/lib.a(crc32.o)
 .note.GNU-stack
                0x0000000000000000        0x0 libbb/lib.a(crc32.o)
 .text          0x0000000000000000        0x0 libbb/lib.a(create_icmp6_socket.o)
 .data          0x0000000000000000        0x0 libbb/lib.a(create_icmp6_socket.o)
 .bss           0x0000000000000000        0x0 libbb/lib.a(create_icmp6_socket.o)
 .note.GNU-stack
                0x0000000000000000        0x0 libbb/lib.a(create_icmp6_socket.o)
 .text          0x0000000000000000        0x0 libbb/lib.a(create_icmp_socket.o)
 .data          0x0000000000000000        0x0 libbb/lib.a(create_icmp_socket.o)
 .bss           0x0000000000000000        0x0 libbb/lib.a(create_icmp_socket.o)
 .note.GNU-stack
                0x0000000000000000        0x0 libbb/lib.a(create_icmp_socket.o)
 .text          0x0000000000000000        0x0 libbb/lib.a(device_open.o)
 .data          0x0000000000000000        0x0 libbb/lib.a(device_open.o)
 .bss           0x0000000000000000        0x0 libbb/lib.a(device_open.o)
 .note.GNU-stack
                0x0000000000000000        0x0 libbb/lib.a(device_open.o)
 .text          0x0000000000000000        0x0 libbb/lib.a(execable.o)
 .data          0x0000000000000000        0x0 libbb/lib.a(execable.o)
 .bss           0x0000000000000000        0x0 libbb/lib.a(execable.o)
 .text.execable_file
                0x0000000000000000       0x54 libbb/lib.a(execable.o)
 .text.find_execable
                0x0000000000000000       0x74 libbb/lib.a(execable.o)
 .text.exists_execable
                0x0000000000000000       0x50 libbb/lib.a(execable.o)
 .note.GNU-stack
                0x0000000000000000        0x0 libbb/lib.a(execable.o)
 .text          0x0000000000000000        0x0 libbb/lib.a(fclose_nonstdin.o)
 .data          0x0000000000000000        0x0 libbb/lib.a(fclose_nonstdin.o)
 .bss           0x0000000000000000        0x0 libbb/lib.a(fclose_nonstdin.o)
 .note.GNU-stack
                0x0000000000000000        0x0 libbb/lib.a(fclose_nonstdin.o)
 .text          0x0000000000000000        0x0 libbb/lib.a(fflush_stdout_and_exit.o)
 .data          0x0000000000000000        0x0 libbb/lib.a(fflush_stdout_and_exit.o)
 .bss           0x0000000000000000        0x0 libbb/lib.a(fflush_stdout_and_exit.o)
 .note.GNU-stack
                0x0000000000000000        0x0 libbb/lib.a(fflush_stdout_and_exit.o)
 .text          0x0000000000000000        0x0 libbb/lib.a(find_mount_point.o)
 .data          0x0000000000000000        0x0 libbb/lib.a(find_mount_point.o)
 .bss           0x0000000000000000        0x0 libbb/lib.a(find_mount_point.o)
 .note.GNU-stack
                0x0000000000000000        0x0 libbb/lib.a(find_mount_point.o)
 .text          0x0000000000000000        0x0 libbb/lib.a(find_pid_by_name.o)
 .data          0x0000000000000000        0x0 libbb/lib.a(find_pid_by_name.o)
 .bss           0x0000000000000000        0x0 libbb/lib.a(find_pid_by_name.o)
 .text.pidlist_reverse
                0x0000000000000000       0x68 libbb/lib.a(find_pid_by_name.o)
 .note.GNU-stack
                0x0000000000000000        0x0 libbb/lib.a(find_pid_by_name.o)
 .text          0x0000000000000000        0x0 libbb/lib.a(get_line_from_file.o)
 .data          0x0000000000000000        0x0 libbb/lib.a(get_line_from_file.o)
 .bss           0x0000000000000000        0x0 libbb/lib.a(get_line_from_file.o)
 .text.xmalloc_fgets
                0x0000000000000000       0x10 libbb/lib.a(get_line_from_file.o)
 .note.GNU-stack
                0x0000000000000000        0x0 libbb/lib.a(get_line_from_file.o)
 .text          0x0000000000000000        0x0 libbb/lib.a(getopt32.o)
 .data          0x0000000000000000        0x0 libbb/lib.a(getopt32.o)
 .bss           0x0000000000000000        0x0 libbb/lib.a(getopt32.o)
 .note.GNU-stack
                0x0000000000000000        0x0 libbb/lib.a(getopt32.o)
 .text          0x0000000000000000        0x0 libbb/lib.a(human_readable.o)
 .data          0x0000000000000000        0x0 libbb/lib.a(human_readable.o)
 .bss           0x0000000000000000        0x0 libbb/lib.a(human_readable.o)
 .text.smart_ulltoa4
                0x0000000000000000      0x1b0 libbb/lib.a(human_readable.o)
 .note.GNU-stack
                0x0000000000000000        0x0 libbb/lib.a(human_readable.o)
 .text          0x0000000000000000        0x0 libbb/lib.a(inet_common.o)
 .data          0x0000000000000000        0x0 libbb/lib.a(inet_common.o)
 .bss           0x0000000000000000        0x0 libbb/lib.a(inet_common.o)
 .note.GNU-stack
                0x0000000000000000        0x0 libbb/lib.a(inet_common.o)
 .text          0x0000000000000000        0x0 libbb/lib.a(info_msg.o)
 .data          0x0000000000000000        0x0 libbb/lib.a(info_msg.o)
 .bss           0x0000000000000000        0x0 libbb/lib.a(info_msg.o)
 .note.GNU-stack
                0x0000000000000000        0x0 libbb/lib.a(info_msg.o)
 .text          0x0000000000000000        0x0 libbb/lib.a(inode_hash.o)
 .data          0x0000000000000000        0x0 libbb/lib.a(inode_hash.o)
 .bss           0x0000000000000000        0x0 libbb/lib.a(inode_hash.o)
 .note.GNU-stack
                0x0000000000000000        0x0 libbb/lib.a(inode_hash.o)
 .text          0x0000000000000000        0x0 libbb/lib.a(isdirectory.o)
 .data          0x0000000000000000        0x0 libbb/lib.a(isdirectory.o)
 .bss           0x0000000000000000        0x0 libbb/lib.a(isdirectory.o)
 .note.GNU-stack
                0x0000000000000000        0x0 libbb/lib.a(isdirectory.o)
 .text          0x0000000000000000        0x0 libbb/lib.a(lineedit.o)
 .data          0x0000000000000000        0x0 libbb/lib.a(lineedit.o)
 .bss           0x0000000000000000        0x0 libbb/lib.a(lineedit.o)
 .note.GNU-stack
                0x0000000000000000        0x0 libbb/lib.a(lineedit.o)
 .text          0x0000000000000000        0x0 libbb/lib.a(lineedit_ptr_hack.o)
 .data          0x0000000000000000        0x0 libbb/lib.a(lineedit_ptr_hack.o)
 .bss           0x0000000000000000        0x0 libbb/lib.a(lineedit_ptr_hack.o)
 .note.GNU-stack
                0x0000000000000000        0x0 libbb/lib.a(lineedit_ptr_hack.o)
 .text          0x0000000000000000        0x0 libbb/lib.a(llist.o)
 .data          0x0000000000000000        0x0 libbb/lib.a(llist.o)
 .bss           0x0000000000000000        0x0 libbb/lib.a(llist.o)
 .text.llist_unlink
                0x0000000000000000       0x34 libbb/lib.a(llist.o)
 .text.llist_free
                0x0000000000000000       0x38 libbb/lib.a(llist.o)
 .text.llist_find_str
                0x0000000000000000       0x38 libbb/lib.a(llist.o)
 .note.GNU-stack
                0x0000000000000000        0x0 libbb/lib.a(llist.o)
 .text          0x0000000000000000        0x0 libbb/lib.a(login.o)
 .data          0x0000000000000000        0x0 libbb/lib.a(login.o)
 .bss           0x0000000000000000        0x0 libbb/lib.a(login.o)
 .text.print_login_issue
                0x0000000000000000      0x21c libbb/lib.a(login.o)
 .text.print_login_prompt
                0x0000000000000000       0x50 libbb/lib.a(login.o)
 .rodata.fmtstr_d
                0x0000000000000000        0xd libbb/lib.a(login.o)
 .rodata.str1.1
                0x0000000000000000        0xb libbb/lib.a(login.o)
 .rodata.fmtstr_t
                0x0000000000000000        0x9 libbb/lib.a(login.o)
 .note.GNU-stack
                0x0000000000000000        0x0 libbb/lib.a(login.o)
 .text          0x0000000000000000        0x0 libbb/lib.a(make_directory.o)
 .data          0x0000000000000000        0x0 libbb/lib.a(make_directory.o)
 .bss           0x0000000000000000        0x0 libbb/lib.a(make_directory.o)
 .note.GNU-stack
                0x0000000000000000        0x0 libbb/lib.a(make_directory.o)
 .text          0x0000000000000000        0x0 libbb/lib.a(makedev.o)
 .data          0x0000000000000000        0x0 libbb/lib.a(makedev.o)
 .bss           0x0000000000000000        0x0 libbb/lib.a(makedev.o)
 .note.GNU-stack
                0x0000000000000000        0x0 libbb/lib.a(makedev.o)
 .text          0x0000000000000000        0x0 libbb/lib.a(match_fstype.o)
 .data          0x0000000000000000        0x0 libbb/lib.a(match_fstype.o)
 .bss           0x0000000000000000        0x0 libbb/lib.a(match_fstype.o)
 .note.GNU-stack
                0x0000000000000000        0x0 libbb/lib.a(match_fstype.o)
 .text          0x0000000000000000        0x0 libbb/lib.a(mode_string.o)
 .data          0x0000000000000000        0x0 libbb/lib.a(mode_string.o)
 .bss           0x0000000000000000        0x0 libbb/lib.a(mode_string.o)
 .note.GNU-stack
                0x0000000000000000        0x0 libbb/lib.a(mode_string.o)
 .text          0x0000000000000000        0x0 libbb/lib.a(mtab_file.o)
 .data          0x0000000000000000        0x0 libbb/lib.a(mtab_file.o)
 .bss           0x0000000000000000        0x0 libbb/lib.a(mtab_file.o)
 .note.GNU-stack
                0x0000000000000000        0x0 libbb/lib.a(mtab_file.o)
 .text          0x0000000000000000        0x0 libbb/lib.a(parse_config.o)
 .data          0x0000000000000000        0x0 libbb/lib.a(parse_config.o)
 .bss           0x0000000000000000        0x0 libbb/lib.a(parse_config.o)
 .text.config_open
                0x0000000000000000       0x10 libbb/lib.a(parse_config.o)
 .note.GNU-stack
                0x0000000000000000        0x0 libbb/lib.a(parse_config.o)
 .text          0x0000000000000000        0x0 libbb/lib.a(parse_mode.o)
 .data          0x0000000000000000        0x0 libbb/lib.a(parse_mode.o)
 .bss           0x0000000000000000        0x0 libbb/lib.a(parse_mode.o)
 .note.GNU-stack
                0x0000000000000000        0x0 libbb/lib.a(parse_mode.o)
 .text          0x0000000000000000        0x0 libbb/lib.a(perror_nomsg_and_die.o)
 .data          0x0000000000000000        0x0 libbb/lib.a(perror_nomsg_and_die.o)
 .bss           0x0000000000000000        0x0 libbb/lib.a(perror_nomsg_and_die.o)
 .note.GNU-stack
                0x0000000000000000        0x0 libbb/lib.a(perror_nomsg_and_die.o)
 .text          0x0000000000000000        0x0 libbb/lib.a(printable_string.o)
 .data          0x0000000000000000        0x0 libbb/lib.a(printable_string.o)
 .bss           0x0000000000000000        0x0 libbb/lib.a(printable_string.o)
 .note.GNU-stack
                0x0000000000000000        0x0 libbb/lib.a(printable_string.o)
 .text          0x0000000000000000        0x0 libbb/lib.a(process_escape_sequence.o)
 .data          0x0000000000000000        0x0 libbb/lib.a(process_escape_sequence.o)
 .bss           0x0000000000000000        0x0 libbb/lib.a(process_escape_sequence.o)
 .note.GNU-stack
                0x0000000000000000        0x0 libbb/lib.a(process_escape_sequence.o)
 .text          0x0000000000000000        0x0 libbb/lib.a(procps.o)
 .data          0x0000000000000000        0x0 libbb/lib.a(procps.o)
 .bss           0x0000000000000000        0x0 libbb/lib.a(procps.o)
 .note.GNU-stack
                0x0000000000000000        0x0 libbb/lib.a(procps.o)
 .text          0x0000000000000000        0x0 libbb/lib.a(read_key.o)
 .data          0x0000000000000000        0x0 libbb/lib.a(read_key.o)
 .bss           0x0000000000000000        0x0 libbb/lib.a(read_key.o)
 .text.read_key_ungets
                0x0000000000000000       0x38 libbb/lib.a(read_key.o)
 .note.GNU-stack
                0x0000000000000000        0x0 libbb/lib.a(read_key.o)
 .text          0x0000000000000000        0x0 libbb/lib.a(read_printf.o)
 .data          0x0000000000000000        0x0 libbb/lib.a(read_printf.o)
 .bss           0x0000000000000000        0x0 libbb/lib.a(read_printf.o)
 .text.xmalloc_reads
                0x0000000000000000       0xd8 libbb/lib.a(read_printf.o)
 .text.xmalloc_xopen_read_close
                0x0000000000000000       0x28 libbb/lib.a(read_printf.o)
 .note.GNU-stack
                0x0000000000000000        0x0 libbb/lib.a(read_printf.o)
 .text          0x0000000000000000        0x0 libbb/lib.a(recursive_action.o)
 .data          0x0000000000000000        0x0 libbb/lib.a(recursive_action.o)
 .bss           0x0000000000000000        0x0 libbb/lib.a(recursive_action.o)
 .note.GNU-stack
                0x0000000000000000        0x0 libbb/lib.a(recursive_action.o)
 .text          0x0000000000000000        0x0 libbb/lib.a(remove_file.o)
 .data          0x0000000000000000        0x0 libbb/lib.a(remove_file.o)
 .bss           0x0000000000000000        0x0 libbb/lib.a(remove_file.o)
 .note.GNU-stack
                0x0000000000000000        0x0 libbb/lib.a(remove_file.o)
 .text          0x0000000000000000        0x0 libbb/lib.a(safe_gethostname.o)
 .data          0x0000000000000000        0x0 libbb/lib.a(safe_gethostname.o)
 .bss           0x0000000000000000        0x0 libbb/lib.a(safe_gethostname.o)
 .text.safe_getdomainname
                0x0000000000000000       0x3c libbb/lib.a(safe_gethostname.o)
 .note.GNU-stack
                0x0000000000000000        0x0 libbb/lib.a(safe_gethostname.o)
 .text          0x0000000000000000        0x0 libbb/lib.a(safe_poll.o)
 .data          0x0000000000000000        0x0 libbb/lib.a(safe_poll.o)
 .bss           0x0000000000000000        0x0 libbb/lib.a(safe_poll.o)
 .note.GNU-stack
                0x0000000000000000        0x0 libbb/lib.a(safe_poll.o)
 .text          0x0000000000000000        0x0 libbb/lib.a(safe_strncpy.o)
 .data          0x0000000000000000        0x0 libbb/lib.a(safe_strncpy.o)
 .bss           0x0000000000000000        0x0 libbb/lib.a(safe_strncpy.o)
 .note.GNU-stack
                0x0000000000000000        0x0 libbb/lib.a(safe_strncpy.o)
 .text          0x0000000000000000        0x0 libbb/lib.a(signals.o)
 .data          0x0000000000000000        0x0 libbb/lib.a(signals.o)
 .bss           0x0000000000000000        0x0 libbb/lib.a(signals.o)
 .text.sig_block
                0x0000000000000000       0x30 libbb/lib.a(signals.o)
 .text.wait_for_any_sig
                0x0000000000000000       0x18 libbb/lib.a(signals.o)
 .note.GNU-stack
                0x0000000000000000        0x0 libbb/lib.a(signals.o)
 .text          0x0000000000000000        0x0 libbb/lib.a(simplify_path.o)
 .data          0x0000000000000000        0x0 libbb/lib.a(simplify_path.o)
 .bss           0x0000000000000000        0x0 libbb/lib.a(simplify_path.o)
 .note.GNU-stack
                0x0000000000000000        0x0 libbb/lib.a(simplify_path.o)
 .text          0x0000000000000000        0x0 libbb/lib.a(skip_whitespace.o)
 .data          0x0000000000000000        0x0 libbb/lib.a(skip_whitespace.o)
 .bss           0x0000000000000000        0x0 libbb/lib.a(skip_whitespace.o)
 .note.GNU-stack
                0x0000000000000000        0x0 libbb/lib.a(skip_whitespace.o)
 .text          0x0000000000000000        0x0 libbb/lib.a(speed_table.o)
 .data          0x0000000000000000        0x0 libbb/lib.a(speed_table.o)
 .bss           0x0000000000000000        0x0 libbb/lib.a(speed_table.o)
 .note.GNU-stack
                0x0000000000000000        0x0 libbb/lib.a(speed_table.o)
 .text          0x0000000000000000        0x0 libbb/lib.a(str_tolower.o)
 .data          0x0000000000000000        0x0 libbb/lib.a(str_tolower.o)
 .bss           0x0000000000000000        0x0 libbb/lib.a(str_tolower.o)
 .note.GNU-stack
                0x0000000000000000        0x0 libbb/lib.a(str_tolower.o)
 .text          0x0000000000000000        0x0 libbb/lib.a(strrstr.o)
 .data          0x0000000000000000        0x0 libbb/lib.a(strrstr.o)
 .bss           0x0000000000000000        0x0 libbb/lib.a(strrstr.o)
 .note.GNU-stack
                0x0000000000000000        0x0 libbb/lib.a(strrstr.o)
 .text          0x0000000000000000        0x0 libbb/lib.a(u_signal_names.o)
 .data          0x0000000000000000        0x0 libbb/lib.a(u_signal_names.o)
 .bss           0x0000000000000000        0x0 libbb/lib.a(u_signal_names.o)
 .note.GNU-stack
                0x0000000000000000        0x0 libbb/lib.a(u_signal_names.o)
 .text          0x0000000000000000        0x0 libbb/lib.a(udp_io.o)
 .data          0x0000000000000000        0x0 libbb/lib.a(udp_io.o)
 .bss           0x0000000000000000        0x0 libbb/lib.a(udp_io.o)
 .text.socket_want_pktinfo
                0x0000000000000000       0x48 libbb/lib.a(udp_io.o)
 .text.send_to_from
                0x0000000000000000      0x11c libbb/lib.a(udp_io.o)
 .note.GNU-stack
                0x0000000000000000        0x0 libbb/lib.a(udp_io.o)
 .text          0x0000000000000000        0x0 libbb/lib.a(update_passwd.o)
 .data          0x0000000000000000        0x0 libbb/lib.a(update_passwd.o)
 .bss           0x0000000000000000        0x0 libbb/lib.a(update_passwd.o)
 .note.GNU-stack
                0x0000000000000000        0x0 libbb/lib.a(update_passwd.o)
 .text          0x0000000000000000        0x0 libbb/lib.a(vfork_daemon_rexec.o)
 .data          0x0000000000000000        0x0 libbb/lib.a(vfork_daemon_rexec.o)
 .bss           0x0000000000000000        0x0 libbb/lib.a(vfork_daemon_rexec.o)
 .text.spawn    0x0000000000000000       0x78 libbb/lib.a(vfork_daemon_rexec.o)
 .text.xspawn   0x0000000000000000       0x1c libbb/lib.a(vfork_daemon_rexec.o)
 .text.spawn_and_wait
                0x0000000000000000       0x10 libbb/lib.a(vfork_daemon_rexec.o)
 .note.GNU-stack
                0x0000000000000000        0x0 libbb/lib.a(vfork_daemon_rexec.o)
 .text          0x0000000000000000        0x0 libbb/lib.a(wfopen.o)
 .data          0x0000000000000000        0x0 libbb/lib.a(wfopen.o)
 .bss           0x0000000000000000        0x0 libbb/lib.a(wfopen.o)
 .text.fopen_for_write
                0x0000000000000000       0x10 libbb/lib.a(wfopen.o)
 .text.xfopen_for_write
                0x0000000000000000       0x10 libbb/lib.a(wfopen.o)
 .text.xfdopen_for_read
                0x0000000000000000        0x8 libbb/lib.a(wfopen.o)
 .note.GNU-stack
                0x0000000000000000        0x0 libbb/lib.a(wfopen.o)
 .text          0x0000000000000000        0x0 libbb/lib.a(wfopen_input.o)
 .data          0x0000000000000000        0x0 libbb/lib.a(wfopen_input.o)
 .bss           0x0000000000000000        0x0 libbb/lib.a(wfopen_input.o)
 .text.xopen_stdin
                0x0000000000000000       0x18 libbb/lib.a(wfopen_input.o)
 .note.GNU-stack
                0x0000000000000000        0x0 libbb/lib.a(wfopen_input.o)
 .text          0x0000000000000000        0x0 libbb/lib.a(xatonum.o)
 .data          0x0000000000000000        0x0 libbb/lib.a(xatonum.o)
 .bss           0x0000000000000000        0x0 libbb/lib.a(xatonum.o)
 .text.xstrtoull_sfx
                0x0000000000000000       0x2c libbb/lib.a(xatonum.o)
 .text.xstrtoull
                0x0000000000000000       0x2c libbb/lib.a(xatonum.o)
 .text.xatoull_range_sfx
                0x0000000000000000        0x8 libbb/lib.a(xatonum.o)
 .text.xatoull_range
                0x0000000000000000       0x28 libbb/lib.a(xatonum.o)
 .text.xatoull  0x0000000000000000        0x8 libbb/lib.a(xatonum.o)
 .text.xstrtoll_range_sfx
                0x0000000000000000       0xcc libbb/lib.a(xatonum.o)
 .text.xstrtoll_range
                0x0000000000000000       0x24 libbb/lib.a(xatonum.o)
 .text.xstrtoll
                0x0000000000000000       0x2c libbb/lib.a(xatonum.o)
 .text.xatoll_range_sfx
                0x0000000000000000        0x8 libbb/lib.a(xatonum.o)
 .text.xatoll_range
                0x0000000000000000       0x28 libbb/lib.a(xatonum.o)
 .text.xatoll_sfx
                0x0000000000000000       0x2c libbb/lib.a(xatonum.o)
 .text.xatoll   0x0000000000000000       0x30 libbb/lib.a(xatonum.o)
 .text.xstrtoul_sfx
                0x0000000000000000       0x18 libbb/lib.a(xatonum.o)
 .text.xstrtoul
                0x0000000000000000       0x18 libbb/lib.a(xatonum.o)
 .text.xstrtol_range_sfx
                0x0000000000000000       0xa0 libbb/lib.a(xatonum.o)
 .text.xstrtol_range
                0x0000000000000000       0x14 libbb/lib.a(xatonum.o)
 .text.xstrtol  0x0000000000000000       0x1c libbb/lib.a(xatonum.o)
 .text.xatol_range_sfx
                0x0000000000000000       0x24 libbb/lib.a(xatonum.o)
 .text.xatol_range
                0x0000000000000000       0x24 libbb/lib.a(xatonum.o)
 .text.xatol_sfx
                0x0000000000000000       0x1c libbb/lib.a(xatonum.o)
 .text.xatol    0x0000000000000000       0x20 libbb/lib.a(xatonum.o)
 .note.GNU-stack
                0x0000000000000000        0x0 libbb/lib.a(xatonum.o)
 .text          0x0000000000000000        0x0 libbb/lib.a(xconnect.o)
 .data          0x0000000000000000        0x0 libbb/lib.a(xconnect.o)
 .bss           0x0000000000000000        0x0 libbb/lib.a(xconnect.o)
 .text.get_peer_lsa
                0x0000000000000000       0x1c libbb/lib.a(xconnect.o)
 .text.get_nport
                0x0000000000000000       0x24 libbb/lib.a(xconnect.o)
 .text.xsocket_type
                0x0000000000000000       0x74 libbb/lib.a(xconnect.o)
 .text.create_and_bind_or_die
                0x0000000000000000       0x94 libbb/lib.a(xconnect.o)
 .text.xsocket_stream
                0x0000000000000000        0xc libbb/lib.a(xconnect.o)
 .text.create_and_bind_stream_or_die
                0x0000000000000000        0x8 libbb/lib.a(xconnect.o)
 .text.create_and_bind_dgram_or_die
                0x0000000000000000        0x8 libbb/lib.a(xconnect.o)
 .text.xmalloc_sockaddr2host
                0x0000000000000000        0x8 libbb/lib.a(xconnect.o)
 .text.xmalloc_sockaddr2hostonly_noport
                0x0000000000000000        0x8 libbb/lib.a(xconnect.o)
 .note.GNU-stack
                0x0000000000000000        0x0 libbb/lib.a(xconnect.o)
 .text          0x0000000000000000        0x0 libbb/lib.a(xgetcwd.o)
 .data          0x0000000000000000        0x0 libbb/lib.a(xgetcwd.o)
 .bss           0x0000000000000000        0x0 libbb/lib.a(xgetcwd.o)
 .note.GNU-stack
                0x0000000000000000        0x0 libbb/lib.a(xgetcwd.o)
 .text          0x0000000000000000        0x0 libbb/lib.a(xreadlink.o)
 .data          0x0000000000000000        0x0 libbb/lib.a(xreadlink.o)
 .bss           0x0000000000000000        0x0 libbb/lib.a(xreadlink.o)
 .note.GNU-stack
                0x0000000000000000        0x0 libbb/lib.a(xreadlink.o)
 .text          0x0000000000000000        0x0 libbb/lib.a(xrealloc_vector.o)
 .data          0x0000000000000000        0x0 libbb/lib.a(xrealloc_vector.o)
 .bss           0x0000000000000000        0x0 libbb/lib.a(xrealloc_vector.o)
 .note.GNU-stack
                0x0000000000000000        0x0 libbb/lib.a(xrealloc_vector.o)
 .text          0x0000000000000000        0x0 libbb/lib.a(xregcomp.o)
 .data          0x0000000000000000        0x0 libbb/lib.a(xregcomp.o)
 .bss           0x0000000000000000        0x0 libbb/lib.a(xregcomp.o)
 .note.GNU-stack
                0x0000000000000000        0x0 libbb/lib.a(xregcomp.o)
 .text          0x0000000000000000        0x0 libbb/lib.a(ask_confirmation.o)
 .data          0x0000000000000000        0x0 libbb/lib.a(ask_confirmation.o)
 .bss           0x0000000000000000        0x0 libbb/lib.a(ask_confirmation.o)
 .note.GNU-stack
                0x0000000000000000        0x0 libbb/lib.a(ask_confirmation.o)
 .text          0x0000000000000000        0x0 libbb/lib.a(bb_qsort.o)
 .data          0x0000000000000000        0x0 libbb/lib.a(bb_qsort.o)
 .bss           0x0000000000000000        0x0 libbb/lib.a(bb_qsort.o)
 .note.GNU-stack
                0x0000000000000000        0x0 libbb/lib.a(bb_qsort.o)
 .text          0x0000000000000000        0x0 libbb/lib.a(concat_subpath_file.o)
 .data          0x0000000000000000        0x0 libbb/lib.a(concat_subpath_file.o)
 .bss           0x0000000000000000        0x0 libbb/lib.a(concat_subpath_file.o)
 .note.GNU-stack
                0x0000000000000000        0x0 libbb/lib.a(concat_subpath_file.o)
 .text          0x0000000000000000        0x0 libbb/lib.a(perror_nomsg.o)
 .data          0x0000000000000000        0x0 libbb/lib.a(perror_nomsg.o)
 .bss           0x0000000000000000        0x0 libbb/lib.a(perror_nomsg.o)
 .note.GNU-stack
                0x0000000000000000        0x0 libbb/lib.a(perror_nomsg.o)
 .data          0x0000000000000000        0x0 /opt/toolchains/crosstools-arm-gcc-4.6-linux-3.4-uclibc-0.9.32-binutils-2.21-NPTL/usr/lib/gcc/arm-unknown-linux-uclibcgnueabi/4.6.2/libgcc.a(_udivsi3.o)
 .bss           0x0000000000000000        0x0 /opt/toolchains/crosstools-arm-gcc-4.6-linux-3.4-uclibc-0.9.32-binutils-2.21-NPTL/usr/lib/gcc/arm-unknown-linux-uclibcgnueabi/4.6.2/libgcc.a(_udivsi3.o)
 .note.GNU-stack
                0x0000000000000000        0x0 /opt/toolchains/crosstools-arm-gcc-4.6-linux-3.4-uclibc-0.9.32-binutils-2.21-NPTL/usr/lib/gcc/arm-unknown-linux-uclibcgnueabi/4.6.2/libgcc.a(_udivsi3.o)
 .data          0x0000000000000000        0x0 /opt/toolchains/crosstools-arm-gcc-4.6-linux-3.4-uclibc-0.9.32-binutils-2.21-NPTL/usr/lib/gcc/arm-unknown-linux-uclibcgnueabi/4.6.2/libgcc.a(_divsi3.o)
 .bss           0x0000000000000000        0x0 /opt/toolchains/crosstools-arm-gcc-4.6-linux-3.4-uclibc-0.9.32-binutils-2.21-NPTL/usr/lib/gcc/arm-unknown-linux-uclibcgnueabi/4.6.2/libgcc.a(_divsi3.o)
 .note.GNU-stack
                0x0000000000000000        0x0 /opt/toolchains/crosstools-arm-gcc-4.6-linux-3.4-uclibc-0.9.32-binutils-2.21-NPTL/usr/lib/gcc/arm-unknown-linux-uclibcgnueabi/4.6.2/libgcc.a(_divsi3.o)
 .data          0x0000000000000000        0x0 /opt/toolchains/crosstools-arm-gcc-4.6-linux-3.4-uclibc-0.9.32-binutils-2.21-NPTL/usr/lib/gcc/arm-unknown-linux-uclibcgnueabi/4.6.2/libgcc.a(_lshrdi3.o)
 .bss           0x0000000000000000        0x0 /opt/toolchains/crosstools-arm-gcc-4.6-linux-3.4-uclibc-0.9.32-binutils-2.21-NPTL/usr/lib/gcc/arm-unknown-linux-uclibcgnueabi/4.6.2/libgcc.a(_lshrdi3.o)
 .note.GNU-stack
                0x0000000000000000        0x0 /opt/toolchains/crosstools-arm-gcc-4.6-linux-3.4-uclibc-0.9.32-binutils-2.21-NPTL/usr/lib/gcc/arm-unknown-linux-uclibcgnueabi/4.6.2/libgcc.a(_lshrdi3.o)
 .data          0x0000000000000000        0x0 /opt/toolchains/crosstools-arm-gcc-4.6-linux-3.4-uclibc-0.9.32-binutils-2.21-NPTL/usr/lib/gcc/arm-unknown-linux-uclibcgnueabi/4.6.2/libgcc.a(_ashldi3.o)
 .bss           0x0000000000000000        0x0 /opt/toolchains/crosstools-arm-gcc-4.6-linux-3.4-uclibc-0.9.32-binutils-2.21-NPTL/usr/lib/gcc/arm-unknown-linux-uclibcgnueabi/4.6.2/libgcc.a(_ashldi3.o)
 .note.GNU-stack
                0x0000000000000000        0x0 /opt/toolchains/crosstools-arm-gcc-4.6-linux-3.4-uclibc-0.9.32-binutils-2.21-NPTL/usr/lib/gcc/arm-unknown-linux-uclibcgnueabi/4.6.2/libgcc.a(_ashldi3.o)
 .data          0x0000000000000000        0x0 /opt/toolchains/crosstools-arm-gcc-4.6-linux-3.4-uclibc-0.9.32-binutils-2.21-NPTL/usr/lib/gcc/arm-unknown-linux-uclibcgnueabi/4.6.2/libgcc.a(_arm_addsubdf3.o)
 .bss           0x0000000000000000        0x0 /opt/toolchains/crosstools-arm-gcc-4.6-linux-3.4-uclibc-0.9.32-binutils-2.21-NPTL/usr/lib/gcc/arm-unknown-linux-uclibcgnueabi/4.6.2/libgcc.a(_arm_addsubdf3.o)
 .note.GNU-stack
                0x0000000000000000        0x0 /opt/toolchains/crosstools-arm-gcc-4.6-linux-3.4-uclibc-0.9.32-binutils-2.21-NPTL/usr/lib/gcc/arm-unknown-linux-uclibcgnueabi/4.6.2/libgcc.a(_arm_addsubdf3.o)
 .data          0x0000000000000000        0x0 /opt/toolchains/crosstools-arm-gcc-4.6-linux-3.4-uclibc-0.9.32-binutils-2.21-NPTL/usr/lib/gcc/arm-unknown-linux-uclibcgnueabi/4.6.2/libgcc.a(_arm_muldivdf3.o)
 .bss           0x0000000000000000        0x0 /opt/toolchains/crosstools-arm-gcc-4.6-linux-3.4-uclibc-0.9.32-binutils-2.21-NPTL/usr/lib/gcc/arm-unknown-linux-uclibcgnueabi/4.6.2/libgcc.a(_arm_muldivdf3.o)
 .note.GNU-stack
                0x0000000000000000        0x0 /opt/toolchains/crosstools-arm-gcc-4.6-linux-3.4-uclibc-0.9.32-binutils-2.21-NPTL/usr/lib/gcc/arm-unknown-linux-uclibcgnueabi/4.6.2/libgcc.a(_arm_muldivdf3.o)
 .data          0x0000000000000000        0x0 /opt/toolchains/crosstools-arm-gcc-4.6-linux-3.4-uclibc-0.9.32-binutils-2.21-NPTL/usr/lib/gcc/arm-unknown-linux-uclibcgnueabi/4.6.2/libgcc.a(_aeabi_ldivmod.o)
 .bss           0x0000000000000000        0x0 /opt/toolchains/crosstools-arm-gcc-4.6-linux-3.4-uclibc-0.9.32-binutils-2.21-NPTL/usr/lib/gcc/arm-unknown-linux-uclibcgnueabi/4.6.2/libgcc.a(_aeabi_ldivmod.o)
 .note.GNU-stack
                0x0000000000000000        0x0 /opt/toolchains/crosstools-arm-gcc-4.6-linux-3.4-uclibc-0.9.32-binutils-2.21-NPTL/usr/lib/gcc/arm-unknown-linux-uclibcgnueabi/4.6.2/libgcc.a(_aeabi_ldivmod.o)
 .data          0x0000000000000000        0x0 /opt/toolchains/crosstools-arm-gcc-4.6-linux-3.4-uclibc-0.9.32-binutils-2.21-NPTL/usr/lib/gcc/arm-unknown-linux-uclibcgnueabi/4.6.2/libgcc.a(_aeabi_uldivmod.o)
 .bss           0x0000000000000000        0x0 /opt/toolchains/crosstools-arm-gcc-4.6-linux-3.4-uclibc-0.9.32-binutils-2.21-NPTL/usr/lib/gcc/arm-unknown-linux-uclibcgnueabi/4.6.2/libgcc.a(_aeabi_uldivmod.o)
 .note.GNU-stack
                0x0000000000000000        0x0 /opt/toolchains/crosstools-arm-gcc-4.6-linux-3.4-uclibc-0.9.32-binutils-2.21-NPTL/usr/lib/gcc/arm-unknown-linux-uclibcgnueabi/4.6.2/libgcc.a(_aeabi_uldivmod.o)
 .data          0x0000000000000000        0x0 /opt/toolchains/crosstools-arm-gcc-4.6-linux-3.4-uclibc-0.9.32-binutils-2.21-NPTL/usr/lib/gcc/arm-unknown-linux-uclibcgnueabi/4.6.2/libgcc.a(_dvmd_lnx.o)
 .bss           0x0000000000000000        0x0 /opt/toolchains/crosstools-arm-gcc-4.6-linux-3.4-uclibc-0.9.32-binutils-2.21-NPTL/usr/lib/gcc/arm-unknown-linux-uclibcgnueabi/4.6.2/libgcc.a(_dvmd_lnx.o)
 .note.GNU-stack
                0x0000000000000000        0x0 /opt/toolchains/crosstools-arm-gcc-4.6-linux-3.4-uclibc-0.9.32-binutils-2.21-NPTL/usr/lib/gcc/arm-unknown-linux-uclibcgnueabi/4.6.2/libgcc.a(_dvmd_lnx.o)
 .data          0x0000000000000000        0x0 /opt/toolchains/crosstools-arm-gcc-4.6-linux-3.4-uclibc-0.9.32-binutils-2.21-NPTL/usr/lib/gcc/arm-unknown-linux-uclibcgnueabi/4.6.2/libgcc.a(_fixunsdfdi.o)
 .bss           0x0000000000000000        0x0 /opt/toolchains/crosstools-arm-gcc-4.6-linux-3.4-uclibc-0.9.32-binutils-2.21-NPTL/usr/lib/gcc/arm-unknown-linux-uclibcgnueabi/4.6.2/libgcc.a(_fixunsdfdi.o)
 .note.GNU-stack
                0x0000000000000000        0x0 /opt/toolchains/crosstools-arm-gcc-4.6-linux-3.4-uclibc-0.9.32-binutils-2.21-NPTL/usr/lib/gcc/arm-unknown-linux-uclibcgnueabi/4.6.2/libgcc.a(_fixunsdfdi.o)
 .data          0x0000000000000000        0x0 /opt/toolchains/crosstools-arm-gcc-4.6-linux-3.4-uclibc-0.9.32-binutils-2.21-NPTL/usr/lib/gcc/arm-unknown-linux-uclibcgnueabi/4.6.2/libgcc.a(bpabi.o)
 .bss           0x0000000000000000        0x0 /opt/toolchains/crosstools-arm-gcc-4.6-linux-3.4-uclibc-0.9.32-binutils-2.21-NPTL/usr/lib/gcc/arm-unknown-linux-uclibcgnueabi/4.6.2/libgcc.a(bpabi.o)
 .ARM.extab     0x0000000000000000        0x0 /opt/toolchains/crosstools-arm-gcc-4.6-linux-3.4-uclibc-0.9.32-binutils-2.21-NPTL/usr/lib/gcc/arm-unknown-linux-uclibcgnueabi/4.6.2/libgcc.a(bpabi.o)
 .note.GNU-stack
                0x0000000000000000        0x0 /opt/toolchains/crosstools-arm-gcc-4.6-linux-3.4-uclibc-0.9.32-binutils-2.21-NPTL/usr/lib/gcc/arm-unknown-linux-uclibcgnueabi/4.6.2/libgcc.a(bpabi.o)
 .data          0x0000000000000000        0x0 /opt/toolchains/crosstools-arm-gcc-4.6-linux-3.4-uclibc-0.9.32-binutils-2.21-NPTL/usr/lib/gcc/arm-unknown-linux-uclibcgnueabi/4.6.2/libgcc.a(_arm_fixunsdfsi.o)
 .bss           0x0000000000000000        0x0 /opt/toolchains/crosstools-arm-gcc-4.6-linux-3.4-uclibc-0.9.32-binutils-2.21-NPTL/usr/lib/gcc/arm-unknown-linux-uclibcgnueabi/4.6.2/libgcc.a(_arm_fixunsdfsi.o)
 .note.GNU-stack
                0x0000000000000000        0x0 /opt/toolchains/crosstools-arm-gcc-4.6-linux-3.4-uclibc-0.9.32-binutils-2.21-NPTL/usr/lib/gcc/arm-unknown-linux-uclibcgnueabi/4.6.2/libgcc.a(_arm_fixunsdfsi.o)
 .data          0x0000000000000000        0x0 /opt/toolchains/crosstools-arm-gcc-4.6-linux-3.4-uclibc-0.9.32-binutils-2.21-NPTL/usr/lib/gcc/arm-unknown-linux-uclibcgnueabi/4.6.2/libgcc.a(_divdi3.o)
 .bss           0x0000000000000000        0x0 /opt/toolchains/crosstools-arm-gcc-4.6-linux-3.4-uclibc-0.9.32-binutils-2.21-NPTL/usr/lib/gcc/arm-unknown-linux-uclibcgnueabi/4.6.2/libgcc.a(_divdi3.o)
 .ARM.extab     0x0000000000000000        0x0 /opt/toolchains/crosstools-arm-gcc-4.6-linux-3.4-uclibc-0.9.32-binutils-2.21-NPTL/usr/lib/gcc/arm-unknown-linux-uclibcgnueabi/4.6.2/libgcc.a(_divdi3.o)
 .note.GNU-stack
                0x0000000000000000        0x0 /opt/toolchains/crosstools-arm-gcc-4.6-linux-3.4-uclibc-0.9.32-binutils-2.21-NPTL/usr/lib/gcc/arm-unknown-linux-uclibcgnueabi/4.6.2/libgcc.a(_divdi3.o)
 .data          0x0000000000000000        0x0 /opt/toolchains/crosstools-arm-gcc-4.6-linux-3.4-uclibc-0.9.32-binutils-2.21-NPTL/usr/lib/gcc/arm-unknown-linux-uclibcgnueabi/4.6.2/libgcc.a(_udivdi3.o)
 .bss           0x0000000000000000        0x0 /opt/toolchains/crosstools-arm-gcc-4.6-linux-3.4-uclibc-0.9.32-binutils-2.21-NPTL/usr/lib/gcc/arm-unknown-linux-uclibcgnueabi/4.6.2/libgcc.a(_udivdi3.o)
 .ARM.extab     0x0000000000000000        0x0 /opt/toolchains/crosstools-arm-gcc-4.6-linux-3.4-uclibc-0.9.32-binutils-2.21-NPTL/usr/lib/gcc/arm-unknown-linux-uclibcgnueabi/4.6.2/libgcc.a(_udivdi3.o)
 .note.GNU-stack
                0x0000000000000000        0x0 /opt/toolchains/crosstools-arm-gcc-4.6-linux-3.4-uclibc-0.9.32-binutils-2.21-NPTL/usr/lib/gcc/arm-unknown-linux-uclibcgnueabi/4.6.2/libgcc.a(_udivdi3.o)
 .data          0x0000000000000000        0x0 /opt/toolchains/crosstools-arm-gcc-4.6-linux-3.4-uclibc-0.9.32-binutils-2.21-NPTL/usr/lib/gcc/arm-unknown-linux-uclibcgnueabi/4.6.2/libgcc_eh.a(unwind-arm.o)
 .bss           0x0000000000000000        0x0 /opt/toolchains/crosstools-arm-gcc-4.6-linux-3.4-uclibc-0.9.32-binutils-2.21-NPTL/usr/lib/gcc/arm-unknown-linux-uclibcgnueabi/4.6.2/libgcc_eh.a(unwind-arm.o)
 .note.GNU-stack
                0x0000000000000000        0x0 /opt/toolchains/crosstools-arm-gcc-4.6-linux-3.4-uclibc-0.9.32-binutils-2.21-NPTL/usr/lib/gcc/arm-unknown-linux-uclibcgnueabi/4.6.2/libgcc_eh.a(unwind-arm.o)
 .data          0x0000000000000000        0x0 /opt/toolchains/crosstools-arm-gcc-4.6-linux-3.4-uclibc-0.9.32-binutils-2.21-NPTL/usr/lib/gcc/arm-unknown-linux-uclibcgnueabi/4.6.2/libgcc_eh.a(libunwind.o)
 .bss           0x0000000000000000        0x0 /opt/toolchains/crosstools-arm-gcc-4.6-linux-3.4-uclibc-0.9.32-binutils-2.21-NPTL/usr/lib/gcc/arm-unknown-linux-uclibcgnueabi/4.6.2/libgcc_eh.a(libunwind.o)
 .note.GNU-stack
                0x0000000000000000        0x0 /opt/toolchains/crosstools-arm-gcc-4.6-linux-3.4-uclibc-0.9.32-binutils-2.21-NPTL/usr/lib/gcc/arm-unknown-linux-uclibcgnueabi/4.6.2/libgcc_eh.a(libunwind.o)
 .data          0x0000000000000000        0x0 /opt/toolchains/crosstools-arm-gcc-4.6-linux-3.4-uclibc-0.9.32-binutils-2.21-NPTL/usr/lib/gcc/arm-unknown-linux-uclibcgnueabi/4.6.2/libgcc_eh.a(pr-support.o)
 .bss           0x0000000000000000        0x0 /opt/toolchains/crosstools-arm-gcc-4.6-linux-3.4-uclibc-0.9.32-binutils-2.21-NPTL/usr/lib/gcc/arm-unknown-linux-uclibcgnueabi/4.6.2/libgcc_eh.a(pr-support.o)
 .ARM.extab     0x0000000000000000        0x0 /opt/toolchains/crosstools-arm-gcc-4.6-linux-3.4-uclibc-0.9.32-binutils-2.21-NPTL/usr/lib/gcc/arm-unknown-linux-uclibcgnueabi/4.6.2/libgcc_eh.a(pr-support.o)
 .note.GNU-stack
                0x0000000000000000        0x0 /opt/toolchains/crosstools-arm-gcc-4.6-linux-3.4-uclibc-0.9.32-binutils-2.21-NPTL/usr/lib/gcc/arm-unknown-linux-uclibcgnueabi/4.6.2/libgcc_eh.a(pr-support.o)
 .text          0x0000000000000000        0x0 /opt/toolchains/crosstools-arm-gcc-4.6-linux-3.4-uclibc-0.9.32-binutils-2.21-NPTL/usr/lib/gcc/arm-unknown-linux-uclibcgnueabi/4.6.2/crtend.o
 .data          0x0000000000000000        0x0 /opt/toolchains/crosstools-arm-gcc-4.6-linux-3.4-uclibc-0.9.32-binutils-2.21-NPTL/usr/lib/gcc/arm-unknown-linux-uclibcgnueabi/4.6.2/crtend.o
 .bss           0x0000000000000000        0x0 /opt/toolchains/crosstools-arm-gcc-4.6-linux-3.4-uclibc-0.9.32-binutils-2.21-NPTL/usr/lib/gcc/arm-unknown-linux-uclibcgnueabi/4.6.2/crtend.o
 .note.GNU-stack
                0x0000000000000000        0x0 /opt/toolchains/crosstools-arm-gcc-4.6-linux-3.4-uclibc-0.9.32-binutils-2.21-NPTL/usr/lib/gcc/arm-unknown-linux-uclibcgnueabi/4.6.2/crtend.o
 .text          0x0000000000000000        0x0 /opt/toolchains/crosstools-arm-gcc-4.6-linux-3.4-uclibc-0.9.32-binutils-2.21-NPTL/usr/arm-unknown-linux-uclibcgnueabi/sysroot/usr/lib/crtn.o
 .data          0x0000000000000000        0x0 /opt/toolchains/crosstools-arm-gcc-4.6-linux-3.4-uclibc-0.9.32-binutils-2.21-NPTL/usr/arm-unknown-linux-uclibcgnueabi/sysroot/usr/lib/crtn.o
 .bss           0x0000000000000000        0x0 /opt/toolchains/crosstools-arm-gcc-4.6-linux-3.4-uclibc-0.9.32-binutils-2.21-NPTL/usr/arm-unknown-linux-uclibcgnueabi/sysroot/usr/lib/crtn.o

Memory Configuration

Name             Origin             Length             Attributes
*default*        0x0000000000000000 0xffffffffffffffff

Linker script and memory map

LOAD /opt/toolchains/crosstools-arm-gcc-4.6-linux-3.4-uclibc-0.9.32-binutils-2.21-NPTL/usr/arm-unknown-linux-uclibcgnueabi/sysroot/usr/lib/crt1.o
LOAD /opt/toolchains/crosstools-arm-gcc-4.6-linux-3.4-uclibc-0.9.32-binutils-2.21-NPTL/usr/arm-unknown-linux-uclibcgnueabi/sysroot/usr/lib/crti.o
LOAD /opt/toolchains/crosstools-arm-gcc-4.6-linux-3.4-uclibc-0.9.32-binutils-2.21-NPTL/usr/lib/gcc/arm-unknown-linux-uclibcgnueabi/4.6.2/crtbegin.o
START GROUP
LOAD applets/built-in.o
LOAD archival/lib.a
LOAD archival/libunarchive/lib.a
LOAD console-tools/lib.a
LOAD coreutils/lib.a
LOAD coreutils/libcoreutils/lib.a
LOAD debianutils/lib.a
LOAD e2fsprogs/lib.a
LOAD editors/lib.a
LOAD findutils/lib.a
LOAD init/lib.a
LOAD libbb/lib.a
LOAD libpwdgrp/lib.a
LOAD loginutils/lib.a
LOAD mailutils/lib.a
LOAD miscutils/lib.a
LOAD modutils/lib.a
LOAD networking/lib.a
LOAD networking/libiproute/lib.a
LOAD networking/udhcp/lib.a
LOAD printutils/lib.a
LOAD procps/lib.a
LOAD runit/lib.a
LOAD selinux/lib.a
LOAD shell/lib.a
LOAD sysklogd/lib.a
LOAD util-linux/lib.a
LOAD util-linux/volume_id/lib.a
LOAD archival/built-in.o
LOAD archival/libunarchive/built-in.o
LOAD console-tools/built-in.o
LOAD coreutils/built-in.o
LOAD coreutils/libcoreutils/built-in.o
LOAD debianutils/built-in.o
LOAD e2fsprogs/built-in.o
LOAD editors/built-in.o
LOAD findutils/built-in.o
LOAD init/built-in.o
LOAD libbb/built-in.o
LOAD libpwdgrp/built-in.o
LOAD loginutils/built-in.o
LOAD mailutils/built-in.o
LOAD miscutils/built-in.o
LOAD modutils/built-in.o
LOAD networking/built-in.o
LOAD networking/libiproute/built-in.o
LOAD networking/udhcp/built-in.o
LOAD printutils/built-in.o
LOAD procps/built-in.o
LOAD runit/built-in.o
LOAD selinux/built-in.o
LOAD shell/built-in.o
LOAD sysklogd/built-in.o
LOAD util-linux/built-in.o
LOAD util-linux/volume_id/built-in.o
END GROUP
START GROUP
LOAD /home/users/popeye_shen/ac88u-gpl/bcm963xx/targets/VR9517UAC44-A-ASU/fs.install/lib/public/libbcm_crc.so
LOAD /home/users/popeye_shen/ac88u-gpl/bcm963xx/targets/VR9517UAC44-A-ASU/fs.install/lib/public/libbcm_flashutil.so
LOAD /home/users/popeye_shen/ac88u-gpl/bcm963xx/targets/VR9517UAC44-A-ASU/fs.install/lib/public/libcms_boardctl.so
LOAD /home/users/popeye_shen/ac88u-gpl/bcm963xx/targets/VR9517UAC44-A-ASU/fs.install/lib/public/libcms_msg.so
LOAD /home/users/popeye_shen/ac88u-gpl/bcm963xx/targets/VR9517UAC44-A-ASU/fs.install/lib/public/libcms_util.so
END GROUP
LOAD /opt/toolchains/crosstools-arm-gcc-4.6-linux-3.4-uclibc-0.9.32-binutils-2.21-NPTL/usr/lib/gcc/arm-unknown-linux-uclibcgnueabi/4.6.2/libgcc.a
LOAD /opt/toolchains/crosstools-arm-gcc-4.6-linux-3.4-uclibc-0.9.32-binutils-2.21-NPTL/usr/lib/gcc/arm-unknown-linux-uclibcgnueabi/4.6.2/libgcc_eh.a
LOAD /opt/toolchains/crosstools-arm-gcc-4.6-linux-3.4-uclibc-0.9.32-binutils-2.21-NPTL/usr/arm-unknown-linux-uclibcgnueabi/sysroot/usr/lib/libc.so
START GROUP
LOAD /opt/toolchains/crosstools-arm-gcc-4.6-linux-3.4-uclibc-0.9.32-binutils-2.21-NPTL/usr/arm-unknown-linux-uclibcgnueabi/sysroot/lib/libc.so.0
LOAD /opt/toolchains/crosstools-arm-gcc-4.6-linux-3.4-uclibc-0.9.32-binutils-2.21-NPTL/usr/arm-unknown-linux-uclibcgnueabi/sysroot/usr/lib/uclibc_nonshared.a
LOAD /opt/toolchains/crosstools-arm-gcc-4.6-linux-3.4-uclibc-0.9.32-binutils-2.21-NPTL/usr/arm-unknown-linux-uclibcgnueabi/sysroot/lib/ld-uClibc.so.0
END GROUP
LOAD /opt/toolchains/crosstools-arm-gcc-4.6-linux-3.4-uclibc-0.9.32-binutils-2.21-NPTL/usr/lib/gcc/arm-unknown-linux-uclibcgnueabi/4.6.2/libgcc.a
LOAD /opt/toolchains/crosstools-arm-gcc-4.6-linux-3.4-uclibc-0.9.32-binutils-2.21-NPTL/usr/lib/gcc/arm-unknown-linux-uclibcgnueabi/4.6.2/libgcc_eh.a
LOAD /opt/toolchains/crosstools-arm-gcc-4.6-linux-3.4-uclibc-0.9.32-binutils-2.21-NPTL/usr/lib/gcc/arm-unknown-linux-uclibcgnueabi/4.6.2/crtend.o
LOAD /opt/toolchains/crosstools-arm-gcc-4.6-linux-3.4-uclibc-0.9.32-binutils-2.21-NPTL/usr/arm-unknown-linux-uclibcgnueabi/sysroot/usr/lib/crtn.o
                0x0000000000008000                PROVIDE (__executable_start, 0x8000)
                0x0000000000008114                . = (0x8000 + SIZEOF_HEADERS)

.interp         0x0000000000008114       0x14
 *(SORT(.interp))
 .interp        0x0000000000008114       0x14 libbb/lib.a(xfuncs_printf.o)

.note.gnu.build-id
 *(SORT(.note.gnu.build-id))

.hash           0x0000000000008128      0x8fc
 *(SORT(.hash))
 .hash          0x0000000000008128      0x8fc libbb/lib.a(xfuncs_printf.o)

.gnu.hash
 *(SORT(.gnu.hash))

.dynsym         0x0000000000008a24     0x1360
 *(SORT(.dynsym))
 .dynsym        0x0000000000008a24     0x1360 libbb/lib.a(xfuncs_printf.o)

.dynstr         0x0000000000009d84      0xbb4
 *(SORT(.dynstr))
 .dynstr        0x0000000000009d84      0xbb4 libbb/lib.a(xfuncs_printf.o)

.gnu.version    0x000000000000a938        0x0
 *(SORT(.gnu.version))
 .gnu.version   0x0000000000000000        0x0 libbb/lib.a(xfuncs_printf.o)

.gnu.version_d  0x000000000000a938        0x0
 *(SORT(.gnu.version_d))
 .gnu.version_d
                0x0000000000000000        0x0 libbb/lib.a(xfuncs_printf.o)

.gnu.version_r  0x000000000000a938        0x0
 *(SORT(.gnu.version_r))
 .gnu.version_r
                0x0000000000000000        0x0 libbb/lib.a(xfuncs_printf.o)

.rel.dyn        0x000000000000a938      0x110
 *(SORT(.rel.init))
 *(SORT(.rel.text) SORT(.rel.text.*) SORT(.rel.gnu.linkonce.t.*))
 *(SORT(.rel.fini))
 *(SORT(.rel.rodata) SORT(.rel.rodata.*) SORT(.rel.gnu.linkonce.r.*))
 *(SORT(.rel.data.rel.ro*) SORT(.rel.gnu.linkonce.d.rel.ro.*))
 *(SORT(.rel.data) SORT(.rel.data.*) SORT(.rel.gnu.linkonce.d.*))
 *(SORT(.rel.tdata) SORT(.rel.tdata.*) SORT(.rel.gnu.linkonce.td.*))
 *(SORT(.rel.tbss) SORT(.rel.tbss.*) SORT(.rel.gnu.linkonce.tb.*))
 *(SORT(.rel.ctors))
 *(SORT(.rel.dtors))
 *(SORT(.rel.got))
 .rel.got       0x000000000000a938      0x110 libbb/lib.a(xfuncs_printf.o)
 *(SORT(.rel.bss) SORT(.rel.bss.*) SORT(.rel.gnu.linkonce.b.*))
 .rel.bss       0x0000000000000000        0x0 libbb/lib.a(xfuncs_printf.o)
                0x000000000000aa48                PROVIDE (__rel_iplt_start, .)
 *(SORT(.rel.iplt))
                0x000000000000aa48                PROVIDE (__rel_iplt_end, .)
                0x000000000000aa48                PROVIDE (__rela_iplt_start, .)
                0x000000000000aa48                PROVIDE (__rela_iplt_end, .)

.rela.dyn       0x000000000000aa48        0x0
 *(SORT(.rela.init))
 *(SORT(.rela.text) SORT(.rela.text.*) SORT(.rela.gnu.linkonce.t.*))
 *(SORT(.rela.fini))
 *(SORT(.rela.rodata) SORT(.rela.rodata.*) SORT(.rela.gnu.linkonce.r.*))
 *(SORT(.rela.data) SORT(.rela.data.*) SORT(.rela.gnu.linkonce.d.*))
 *(SORT(.rela.tdata) SORT(.rela.tdata.*) SORT(.rela.gnu.linkonce.td.*))
 *(SORT(.rela.tbss) SORT(.rela.tbss.*) SORT(.rela.gnu.linkonce.tb.*))
 *(SORT(.rela.ctors))
 *(SORT(.rela.dtors))
 *(SORT(.rela.got))
 *(SORT(.rela.bss) SORT(.rela.bss.*) SORT(.rela.gnu.linkonce.b.*))
                0x000000000000aa48                PROVIDE (__rel_iplt_start, .)
                0x000000000000aa48                PROVIDE (__rel_iplt_end, .)
                0x000000000000aa48                PROVIDE (__rela_iplt_start, .)
 *(SORT(.rela.iplt))
                0x000000000000aa48                PROVIDE (__rela_iplt_end, .)

.rel.plt        0x000000000000aa48      0x828
 *(SORT(.rel.plt))
 .rel.plt       0x000000000000aa48      0x828 libbb/lib.a(xfuncs_printf.o)

.rela.plt
 *(SORT(.rela.plt))

.init           0x000000000000b270       0x10
 *(SORT(.init))
 .init          0x000000000000b270        0xc /opt/toolchains/crosstools-arm-gcc-4.6-linux-3.4-uclibc-0.9.32-binutils-2.21-NPTL/usr/arm-unknown-linux-uclibcgnueabi/sysroot/usr/lib/crti.o
                0x000000000000b270                _init
 .init          0x000000000000b27c        0x4 /opt/toolchains/crosstools-arm-gcc-4.6-linux-3.4-uclibc-0.9.32-binutils-2.21-NPTL/usr/arm-unknown-linux-uclibcgnueabi/sysroot/usr/lib/crtn.o

.plt            0x000000000000b280      0xc50
 *(SORT(.plt))
 .plt           0x000000000000b280      0xc50 libbb/lib.a(xfuncs_printf.o)
                0x000000000000b294                longjmp
                0x000000000000b2a0                putchar
                0x000000000000b2ac                cmsImg_getImageFlashSize
                0x000000000000b2b8                strcpy
                0x000000000000b2c4                chroot
                0x000000000000b2d0                setrlimit64
                0x000000000000b2dc                unsetenv
                0x000000000000b2e8                waitpid
                0x000000000000b2f4                ioctl
                0x000000000000b300                cmsLog_setLevel
                0x000000000000b30c                imgif_write
                0x000000000000b318                getgid
                0x000000000000b324                sysconf
                0x000000000000b330                printf
                0x000000000000b33c                cfgetospeed
                0x000000000000b348                recv
                0x000000000000b354                connect
                0x000000000000b360                cmsMsg_cleanup
                0x000000000000b36c                sigemptyset
                0x000000000000b378                utimes
                0x000000000000b384                shmctl
                0x000000000000b390                strerror
                0x000000000000b39c                geteuid
                0x000000000000b3a8                inet_pton
                0x000000000000b3b4                stat64
                0x000000000000b3c0                memmove
                0x000000000000b3cc                snprintf
                0x000000000000b3d8                sched_getparam
                0x000000000000b3e4                cmsImg_getConfigFlashSize
                0x000000000000b3f0                mknod
                0x000000000000b3fc                ftello64
                0x000000000000b408                getgrgid
                0x000000000000b414                times
                0x000000000000b420                statfs64
                0x000000000000b42c                getenv
                0x000000000000b438                fchmod
                0x000000000000b444                cmsLog_init
                0x000000000000b450                getegid
                0x000000000000b45c                bsearch
                0x000000000000b468                usleep
                0x000000000000b480                execve
                0x000000000000b48c                semget
                0x000000000000b498                getpagesize
                0x000000000000b4a4                getpid
                0x000000000000b4b0                cmsMsg_initWithFlags
                0x000000000000b4bc                qsort
                0x000000000000b4c8                fchown
                0x000000000000b4d4                fscanf
                0x000000000000b4e0                fgets
                0x000000000000b4ec                cmsMem_free
                0x000000000000b4f8                cmsUtil_sendRequestRebootMsg
                0x000000000000b504                fcntl64
                0x000000000000b510                getrlimit64
                0x000000000000b51c                shmat
                0x000000000000b528                memcpy
                0x000000000000b534                perror
                0x000000000000b540                readlink
                0x000000000000b54c                puts
                0x000000000000b558                dup2
                0x000000000000b564                imgif_open
                0x000000000000b570                getuid
                0x000000000000b57c                semctl
                0x000000000000b588                feof
                0x000000000000b594                malloc
                0x000000000000b5a0                isatty
                0x000000000000b5ac                cfgetispeed
                0x000000000000b5b8                sleep
                0x000000000000b5c4                sched_setscheduler
                0x000000000000b5d0                sysinfo
                0x000000000000b5dc                vsnprintf
                0x000000000000b5e8                recvfrom
                0x000000000000b5f4                strtoul
                0x000000000000b600                cmsImg_sendLoadDoneMsg
                0x000000000000b60c                sched_getscheduler
                0x000000000000b618                gethostbyaddr
                0x000000000000b624                rmdir
                0x000000000000b630                socket
                0x000000000000b63c                select
                0x000000000000b648                init_module
                0x000000000000b654                cmsImg_isBcmTaggedImage
                0x000000000000b660                lchown
                0x000000000000b66c                delete_module
                0x000000000000b678                fflush
                0x000000000000b684                realpath
                0x000000000000b690                putenv
                0x000000000000b69c                sigaddset
                0x000000000000b6a8                chown
                0x000000000000b6b4                strncasecmp
                0x000000000000b6c0                send
                0x000000000000b6cc                freeaddrinfo
                0x000000000000b6d8                __fgetc_unlocked
                0x000000000000b6e4                abort
                0x000000000000b6f0                chmod
                0x000000000000b6fc                getnameinfo
                0x000000000000b708                fstat64
                0x000000000000b714                alarm
                0x000000000000b720                strtol
                0x000000000000b72c                pipe
                0x000000000000b738                strnlen
                0x000000000000b744                uname
                0x000000000000b750                cmsLog_cleanup
                0x000000000000b75c                cfsetispeed
                0x000000000000b768                rename
                0x000000000000b774                strrchr
                0x000000000000b780                write
                0x000000000000b78c                log_log
                0x000000000000b798                fprintf
                0x000000000000b7a4                kill
                0x000000000000b7b0                ctime
                0x000000000000b7bc                strcat
                0x000000000000b7c8                bind
                0x000000000000b7d4                getmntent_r
                0x000000000000b7e0                vprintf
                0x000000000000b7ec                umount2
                0x000000000000b7f8                if_nametoindex
                0x000000000000b810                reboot
                0x000000000000b81c                chdir
                0x000000000000b828                cmsImg_getBroadcomImageTagSize
                0x000000000000b834                shmdt
                0x000000000000b840                setsockopt
                0x000000000000b84c                cmsImg_saveIfNameFromSocket
                0x000000000000b858                shmget
                0x000000000000b864                cfsetospeed
                0x000000000000b870                wait
                0x000000000000b87c                umask
                0x000000000000b888                dprintf
                0x000000000000b894                mktime
                0x000000000000b8a0                strcasestr
                0x000000000000b8ac                ferror
                0x000000000000b8b8                strstr
                0x000000000000b8c4                setgid
                0x000000000000b8d0                signal
                0x000000000000b8dc                read
                0x000000000000b8e8                openlog
                0x000000000000b8f4                closelog
                0x000000000000b900                strncmp
                0x000000000000b90c                cmsMsg_send
                0x000000000000b918                __cmsg_nxthdr
                0x000000000000b924                strncpy
                0x000000000000b930                unlink
                0x000000000000b93c                sync
                0x000000000000b948                setenv
                0x000000000000b954                freopen64
                0x000000000000b960                strcasecmp
                0x000000000000b96c                sendto
                0x000000000000b984                sched_get_priority_max
                0x000000000000b990                realloc
                0x000000000000b99c                readdir64
                0x000000000000b9a8                strtok
                0x000000000000b9b4                sigfillset
                0x000000000000b9c0                memcmp
                0x000000000000b9cc                sched_get_priority_min
                0x000000000000b9d8                fdopen
                0x000000000000b9e4                cmsImg_sendLoadStartingMsg
                0x000000000000b9f0                fork
                0x000000000000b9fc                sscanf
                0x000000000000ba08                setmntent
                0x000000000000ba14                lstat64
                0x000000000000ba20                sigaction
                0x000000000000ba2c                endmntent
                0x000000000000ba38                fread
                0x000000000000ba44                ttyname_r
                0x000000000000ba50                __uClibc_main
                0x000000000000ba5c                strdup
                0x000000000000ba68                inet_aton
                0x000000000000ba74                strtoull
                0x000000000000ba80                regcomp
                0x000000000000ba8c                symlink
                0x000000000000ba98                gettimeofday
                0x000000000000baa4                getopt
                0x000000000000bab0                localtime
                0x000000000000babc                memset
                0x000000000000bac8                fnmatch
                0x000000000000bad4                cmsImg_writeImage
                0x000000000000bae0                clearerr
                0x000000000000baec                mallopt
                0x000000000000baf8                fclose
                0x000000000000bb04                open64
                0x000000000000bb10                inet_ntoa
                0x000000000000bb1c                getppid
                0x000000000000bb28                imgif_close
                0x000000000000bb34                tcgetattr
                0x000000000000bb40                cmsMsg_init
                0x000000000000bb4c                regexec
                0x000000000000bb58                time
                0x000000000000bb64                opendir
                0x000000000000bb70                getgroups
                0x000000000000bb7c                poll
                0x000000000000bb88                cmsImg_isConfigFileLikely
                0x000000000000bb94                syslog
                0x000000000000bba0                mount
                0x000000000000bbac                strcmp
                0x000000000000bbb8                shutdown
                0x000000000000bbc4                getpwuid
                0x000000000000bbd0                dup
                0x000000000000bbdc                __gnu_Unwind_Find_exidx
                0x000000000000bbe8                getcwd
                0x000000000000bbf4                gethostbyname
                0x000000000000bc00                strsignal
                0x000000000000bc0c                getpwnam
                0x000000000000bc18                getservbyname
                0x000000000000bc24                fgetc
                0x000000000000bc30                sprintf
                0x000000000000bc3c                strcspn
                0x000000000000bc48                regerror
                0x000000000000bc54                umount
                0x000000000000bc60                vfork
                0x000000000000bc6c                sched_getaffinity
                0x000000000000bc78                strsep
                0x000000000000bc84                fsync
                0x000000000000bc90                fputc
                0x000000000000bc9c                imgif_get_enable_mode
                0x000000000000bca8                sched_setaffinity
                0x000000000000bcb4                localtime_r
                0x000000000000bcc0                getaddrinfo
                0x000000000000bccc                strftime
                0x000000000000bcd8                cmsLog_initWithName
                0x000000000000bce4                getmntent
                0x000000000000bcf0                access
                0x000000000000bcfc                strptime
                0x000000000000bd08                __errno_location
                0x000000000000bd14                link
                0x000000000000bd20                semop
                0x000000000000bd2c                exit
                0x000000000000bd38                stime
                0x000000000000bd44                klogctl
                0x000000000000bd50                sigdelset
                0x000000000000bd5c                inet_ntop
                0x000000000000bd68                atoi
                0x000000000000bd74                fileno
                0x000000000000bd80                _setjmp
                0x000000000000bd8c                _exit
                0x000000000000bd98                cmsMsg_receive
                0x000000000000bda4                strspn
                0x000000000000bdb0                strlen
                0x000000000000bdbc                lseek64
                0x000000000000bdc8                regfree
                0x000000000000bdd4                strchr
                0x000000000000bde0                fputs
                0x000000000000bdec                execvp
                0x000000000000bdf8                setsid
                0x000000000000be04                closedir
                0x000000000000be10                vasprintf
                0x000000000000be1c                recvmsg
                0x000000000000be28                strchrnul
                0x000000000000be34                setuid
                0x000000000000be40                tcsetattr
                0x000000000000be4c                mkdir
                0x000000000000be64                close
                0x000000000000be70                vfprintf
                0x000000000000be7c                strpbrk
                0x000000000000be88                raise
                0x000000000000be94                free
                0x000000000000bea0                sigprocmask
                0x000000000000beac                __fputc_unlocked
                0x000000000000beb8                fopen64
                0x000000000000bec4                ftruncate64

.iplt
 *(SORT(.iplt))

.text           0x000000000000bed0    0x33074
 *(SORT(.text.unlikely) SORT(.text.*_unlikely))
 *(SORT(.text.exit) SORT(.text.exit.*))
 *(SORT(.text.startup) SORT(.text.startup.*))
 *(SORT(.text.hot) SORT(.text.hot.*))
 *(SORT(.text) SORT(.stub) SORT(.text.*) SORT(.gnu.linkonce.t.*))
 .text          0x000000000000bed0       0x3c /opt/toolchains/crosstools-arm-gcc-4.6-linux-3.4-uclibc-0.9.32-binutils-2.21-NPTL/usr/arm-unknown-linux-uclibcgnueabi/sysroot/usr/lib/crt1.o
                0x000000000000bed0                _start
 .text          0x000000000000bf0c       0x94 /opt/toolchains/crosstools-arm-gcc-4.6-linux-3.4-uclibc-0.9.32-binutils-2.21-NPTL/usr/lib/gcc/arm-unknown-linux-uclibcgnueabi/4.6.2/crtbegin.o
 .text.applet_name_compare
                0x000000000000bfa0       0x2c libbb/lib.a(appletlib.o)
 .text.find_applet_by_name
                0x000000000000bfcc       0x40 libbb/lib.a(appletlib.o)
                0x000000000000bfcc                find_applet_by_name
 .text.bb_show_usage
                0x000000000000c00c      0x10c libbb/lib.a(appletlib.o)
                0x000000000000c00c                bb_show_usage
 .text.lbb_prepare
                0x000000000000c118       0x30 libbb/lib.a(appletlib.o)
                0x000000000000c118                lbb_prepare
 .text.run_applet_no_and_exit
                0x000000000000c148       0xd4 libbb/lib.a(appletlib.o)
                0x000000000000c148                run_applet_no_and_exit
 .text.run_applet_and_exit
                0x000000000000c21c      0x22c libbb/lib.a(appletlib.o)
                0x000000000000c21c                run_applet_and_exit
 .text.main     0x000000000000c448       0x90 libbb/lib.a(appletlib.o)
                0x000000000000c448                main
 .text.bb_basename
                0x000000000000c4d8       0x20 libbb/lib.a(bb_basename.o)
                0x000000000000c4d8                bb_basename
 .text.bb_get_last_path_component_nostrip
                0x000000000000c4f8       0x38 libbb/lib.a(get_last_path_component.o)
                0x000000000000c4f8                bb_get_last_path_component_nostrip
 .text.bb_get_last_path_component_strip
                0x000000000000c530       0x54 libbb/lib.a(get_last_path_component.o)
                0x000000000000c530                bb_get_last_path_component_strip
 .text.last_char_is
                0x000000000000c584       0x3c libbb/lib.a(last_char_is.o)
                0x000000000000c584                last_char_is
 .text.xfunc_die
                0x000000000000c5c0       0x2c libbb/lib.a(xfunc_die.o)
                0x000000000000c5c0                xfunc_die
 .text.wh_helper
                0x000000000000c5ec       0x4c libbb/lib.a(xfuncs.o)
 .text.ndelay_off
                0x000000000000c638       0x24 libbb/lib.a(xfuncs.o)
                0x000000000000c638                ndelay_off
 .text.close_on_exec_on
                0x000000000000c65c        0xc libbb/lib.a(xfuncs.o)
                0x000000000000c65c                close_on_exec_on
 .text.strncpy_IFNAMSIZ
                0x000000000000c668        0x8 libbb/lib.a(xfuncs.o)
                0x000000000000c668                strncpy_IFNAMSIZ
 .text.utoa_to_buf
                0x000000000000c670       0x94 libbb/lib.a(xfuncs.o)
                0x000000000000c670                utoa_to_buf
 .text.itoa_to_buf
                0x000000000000c704       0x28 libbb/lib.a(xfuncs.o)
                0x000000000000c704                itoa_to_buf
 .text.utoa     0x000000000000c72c       0x2c libbb/lib.a(xfuncs.o)
                0x000000000000c72c                utoa
 .text.itoa     0x000000000000c758       0x2c libbb/lib.a(xfuncs.o)
                0x000000000000c758                itoa
 .text.full_write2_str
                0x000000000000c784       0x20 libbb/lib.a(xfuncs.o)
                0x000000000000c784                full_write2_str
 .text.get_terminal_width_height
                0x000000000000c7a4       0xa0 libbb/lib.a(xfuncs.o)
                0x000000000000c7a4                get_terminal_width_height
 .text.tcsetattr_stdin_TCSANOW
                0x000000000000c844       0x10 libbb/lib.a(xfuncs.o)
                0x000000000000c844                tcsetattr_stdin_TCSANOW
 .text.safe_waitpid
                0x000000000000c854       0x48 libbb/lib.a(xfuncs.o)
                0x000000000000c854                safe_waitpid
 .text.wait_any_nohang
                0x000000000000c89c       0x10 libbb/lib.a(xfuncs.o)
                0x000000000000c89c                wait_any_nohang
 .text.malloc_or_warn
                0x000000000000c8ac       0x40 libbb/lib.a(xfuncs_printf.o)
                0x000000000000c8ac                malloc_or_warn
 .text.xmalloc  0x000000000000c8ec       0x34 libbb/lib.a(xfuncs_printf.o)
                0x000000000000c8ec                xmalloc
 .text.xrealloc
                0x000000000000c920       0x34 libbb/lib.a(xfuncs_printf.o)
                0x000000000000c920                xrealloc
 .text.xzalloc  0x000000000000c954       0x24 libbb/lib.a(xfuncs_printf.o)
                0x000000000000c954                xzalloc
 .text.xstrdup  0x000000000000c978       0x30 libbb/lib.a(xfuncs_printf.o)
                0x000000000000c978                xstrdup
 .text.xstrndup
                0x000000000000c9a8       0x50 libbb/lib.a(xfuncs_printf.o)
                0x000000000000c9a8                xstrndup
 .text.xfopen   0x000000000000c9f8       0x28 libbb/lib.a(xfuncs_printf.o)
                0x000000000000c9f8                xfopen
 .text.xopen3   0x000000000000ca20       0x28 libbb/lib.a(xfuncs_printf.o)
                0x000000000000ca20                xopen3
 .text.xopen    0x000000000000ca48        0x8 libbb/lib.a(xfuncs_printf.o)
                0x000000000000ca48                xopen
 .text.xopen_nonblocking
                0x000000000000ca50        0x8 libbb/lib.a(xfuncs_printf.o)
                0x000000000000ca50                xopen_nonblocking
 .text.open3_or_warn
                0x000000000000ca58       0x30 libbb/lib.a(xfuncs_printf.o)
                0x000000000000ca58                open3_or_warn
 .text.open_or_warn
                0x000000000000ca88        0x8 libbb/lib.a(xfuncs_printf.o)
                0x000000000000ca88                open_or_warn
 .text.xunlink  0x000000000000ca90       0x28 libbb/lib.a(xfuncs_printf.o)
                0x000000000000ca90                xunlink
 .text.xdup2    0x000000000000cab8       0x24 libbb/lib.a(xfuncs_printf.o)
                0x000000000000cab8                xdup2
 .text.xmove_fd
                0x000000000000cadc       0x20 libbb/lib.a(xfuncs_printf.o)
                0x000000000000cadc                xmove_fd
 .text.xwrite   0x000000000000cafc       0x28 libbb/lib.a(xfuncs_printf.o)
                0x000000000000cafc                xwrite
 .text.xclose   0x000000000000cb24       0x20 libbb/lib.a(xfuncs_printf.o)
                0x000000000000cb24                xclose
 .text.xlseek   0x000000000000cb44       0x60 libbb/lib.a(xfuncs_printf.o)
                0x000000000000cb44                xlseek
 .text.fflush_all
                0x000000000000cba4        0x8 libbb/lib.a(xfuncs_printf.o)
                0x000000000000cba4                fflush_all
 .text.bb_putchar
                0x000000000000cbac       0x50 libbb/lib.a(xfuncs_printf.o)
                0x000000000000cbac                bb_putchar
 .text.xasprintf
                0x000000000000cbfc       0x44 libbb/lib.a(xfuncs_printf.o)
                0x000000000000cbfc                xasprintf
 .text.xsetenv  0x000000000000cc40       0x24 libbb/lib.a(xfuncs_printf.o)
                0x000000000000cc40                xsetenv
 .text.xsetgid  0x000000000000cc64       0x20 libbb/lib.a(xfuncs_printf.o)
                0x000000000000cc64                xsetgid
 .text.xsetuid  0x000000000000cc84       0x20 libbb/lib.a(xfuncs_printf.o)
                0x000000000000cc84                xsetuid
 .text.xchdir   0x000000000000cca4       0x28 libbb/lib.a(xfuncs_printf.o)
                0x000000000000cca4                xchdir
 .text.warn_opendir
                0x000000000000cccc       0x30 libbb/lib.a(xfuncs_printf.o)
                0x000000000000cccc                warn_opendir
 .text.xopendir
                0x000000000000ccfc       0x28 libbb/lib.a(xfuncs_printf.o)
                0x000000000000ccfc                xopendir
 .text.xsocket  0x000000000000cd24       0x20 libbb/lib.a(xfuncs_printf.o)
                0x000000000000cd24                xsocket
 .text.xbind    0x000000000000cd44       0x20 libbb/lib.a(xfuncs_printf.o)
                0x000000000000cd44                xbind
 .text.xsendto  0x000000000000cd64       0x34 libbb/lib.a(xfuncs_printf.o)
                0x000000000000cd64                xsendto
 .text.xstat    0x000000000000cd98       0x28 libbb/lib.a(xfuncs_printf.o)
                0x000000000000cd98                xstat
 .text.ioctl_or_perror_and_die
                0x000000000000cdc0       0x50 libbb/lib.a(xfuncs_printf.o)
                0x000000000000cdc0                ioctl_or_perror_and_die
 .text.bb_ioctl_or_warn
                0x000000000000ce10       0x30 libbb/lib.a(xfuncs_printf.o)
                0x000000000000ce10                bb_ioctl_or_warn
 .text.bb_xioctl
                0x000000000000ce40       0x28 libbb/lib.a(xfuncs_printf.o)
                0x000000000000ce40                bb_xioctl
 .text.xmalloc_ttyname
                0x000000000000ce68       0x40 libbb/lib.a(xfuncs_printf.o)
                0x000000000000ce68                xmalloc_ttyname
 .text.xfork    0x000000000000cea8       0x24 libbb/lib.a(xfuncs_printf.o)
                0x000000000000cea8                xfork
 .text.bb_full_fd_action
                0x000000000000cecc      0x138 libbb/lib.a(copyfd.o)
 .text.bb_copyfd_eof
                0x000000000000d004        0xc libbb/lib.a(copyfd.o)
                0x000000000000d004                bb_copyfd_eof
 .text.full_write
                0x000000000000d010       0x58 libbb/lib.a(full_write.o)
                0x000000000000d010                full_write
 .text.bb_perror_msg
                0x000000000000d068       0x48 libbb/lib.a(perror_msg.o)
                0x000000000000d068                bb_perror_msg
 .text.bb_perror_msg_and_die
                0x000000000000d0b0       0x40 libbb/lib.a(perror_msg.o)
                0x000000000000d0b0                bb_perror_msg_and_die
 .text.bb_simple_perror_msg
                0x000000000000d0f0       0x14 libbb/lib.a(perror_msg.o)
                0x000000000000d0f0                bb_simple_perror_msg
 .text.bb_simple_perror_msg_and_die
                0x000000000000d104       0x18 libbb/lib.a(perror_msg.o)
                0x000000000000d104                bb_simple_perror_msg_and_die
 .text.safe_read
                0x000000000000d11c       0x48 libbb/lib.a(read.o)
                0x000000000000d11c                safe_read
 .text.full_read
                0x000000000000d164       0x5c libbb/lib.a(read.o)
                0x000000000000d164                full_read
 .text.read_close
                0x000000000000d1c0       0x20 libbb/lib.a(read.o)
                0x000000000000d1c0                read_close
 .text.open_read_close
                0x000000000000d1e0       0x2c libbb/lib.a(read.o)
                0x000000000000d1e0                open_read_close
 .text.safe_write
                0x000000000000d20c       0x48 libbb/lib.a(safe_write.o)
                0x000000000000d20c                safe_write
 .text.parse_datestr
                0x000000000000d254      0x3e8 libbb/lib.a(time.o)
                0x000000000000d254                parse_datestr
 .text.validate_tm_time
                0x000000000000d63c       0x2c libbb/lib.a(time.o)
                0x000000000000d63c                validate_tm_time
 .text.monotonic_us
                0x000000000000d668       0x30 libbb/lib.a(time.o)
                0x000000000000d668                monotonic_us
 .text.monotonic_ms
                0x000000000000d698       0x3c libbb/lib.a(time.o)
                0x000000000000d698                monotonic_ms
 .text.monotonic_sec
                0x000000000000d6d4        0x8 libbb/lib.a(time.o)
                0x000000000000d6d4                monotonic_sec
 .text.bb_verror_msg
                0x000000000000d6dc      0x1d4 libbb/lib.a(verror_msg.o)
                0x000000000000d6dc                bb_verror_msg
 .text.bb_error_msg_and_die
                0x000000000000d8b0       0x20 libbb/lib.a(verror_msg.o)
                0x000000000000d8b0                bb_error_msg_and_die
 .text.bb_error_msg
                0x000000000000d8d0       0x28 libbb/lib.a(verror_msg.o)
                0x000000000000d8d0                bb_error_msg
 .text.ret_ERANGE
                0x000000000000d8f8       0x20 libbb/lib.a(bb_strtonum.o)
 .text.handle_errors
                0x000000000000d918       0x60 libbb/lib.a(bb_strtonum.o)
 .text.bb_strtoull
                0x000000000000d978       0x64 libbb/lib.a(bb_strtonum.o)
                0x000000000000d978                bb_strtoull
 .text.bb_strtoul
                0x000000000000d9dc       0x68 libbb/lib.a(bb_strtonum.o)
                0x000000000000d9dc                bb_strtoul
 .text.bb_strtol
                0x000000000000da44       0x70 libbb/lib.a(bb_strtonum.o)
                0x000000000000da44                bb_strtol
 .text.del_line_matching
                0x000000000000dab4       0x14 loginutils/lib.a(deluser.o)
 .text.deluser_main
                0x000000000000dac8       0x70 loginutils/lib.a(deluser.o)
                0x000000000000dac8                deluser_main
 .text.show_min_max
                0x000000000000db38       0x58 miscutils/lib.a(chrt.o)
 .text.chrt_main
                0x000000000000db90      0x204 miscutils/lib.a(chrt.o)
                0x000000000000db90                chrt_main
 .text.show_progress
                0x000000000000dd94       0x70 miscutils/lib.a(flash_eraseall.o)
 .text.flash_eraseall_main
                0x000000000000de04      0x3f0 miscutils/lib.a(flash_eraseall.o)
                0x000000000000de04                flash_eraseall_main
 .text.sysinfo_main
                0x000000000000e1f4      0x318 miscutils/lib.a(sysinfo.o)
                0x000000000000e1f4                sysinfo_main
 .text.taskset_main
                0x000000000000e50c      0x29c miscutils/lib.a(taskset.o)
                0x000000000000e50c                taskset_main
 .text.order_dep_list
                0x000000000000e7a8       0x90 modutils/lib.a(depmod.o)
 .text.parse_module
                0x000000000000e838      0x120 modutils/lib.a(depmod.o)
 .text.depmod_main
                0x000000000000e958      0x214 modutils/lib.a(depmod.o)
                0x000000000000e958                depmod_main
 .text.insmod_main
                0x000000000000eb6c       0x54 modutils/lib.a(insmod.o)
                0x000000000000eb6c                insmod_main
 .text.humanly_readable_name
                0x000000000000ebc0       0x14 modutils/lib.a(modprobe.o)
 .text.read_config
                0x000000000000ebd4       0x2c modutils/lib.a(modprobe.o)
 .text.gather_options_str
                0x000000000000ec00       0x68 modutils/lib.a(modprobe.o)
 .text.helper_get_module
                0x000000000000ec68       0xa8 modutils/lib.a(modprobe.o)
 .text.get_or_add_modentry
                0x000000000000ed10        0x8 modutils/lib.a(modprobe.o)
 .text.add_probe
                0x000000000000ed18       0x94 modutils/lib.a(modprobe.o)
 .text.config_file_action
                0x000000000000edac      0x268 modutils/lib.a(modprobe.o)
 .text.do_modprobe
                0x000000000000f014      0x2bc modutils/lib.a(modprobe.o)
 .text.modprobe_main
                0x000000000000f2d0      0x4a8 modutils/lib.a(modprobe.o)
                0x000000000000f2d0                modprobe_main
 .text.string_to_llist
                0x000000000000f778       0x60 modutils/lib.a(modutils.o)
                0x000000000000f778                string_to_llist
 .text.filename2modname
                0x000000000000f7d8       0x74 modutils/lib.a(modutils.o)
                0x000000000000f7d8                filename2modname
 .text.parse_cmdline_module_options
                0x000000000000f84c       0x94 modutils/lib.a(modutils.o)
                0x000000000000f84c                parse_cmdline_module_options
 .text.bb_init_module
                0x000000000000f8e0       0x74 modutils/lib.a(modutils.o)
                0x000000000000f8e0                bb_init_module
 .text.bb_delete_module
                0x000000000000f954       0x24 modutils/lib.a(modutils.o)
                0x000000000000f954                bb_delete_module
 .text.moderror
                0x000000000000f978       0x90 modutils/lib.a(modutils.o)
                0x000000000000f978                moderror
 .text.rmmod_main
                0x000000000000fa08      0x110 modutils/lib.a(rmmod.o)
                0x000000000000fa08                rmmod_main
 .text.ftp_die  0x000000000000fb18       0x7c networking/lib.a(ftpgetput.o)
 .text.ftpcmd   0x000000000000fb94      0x16c networking/lib.a(ftpgetput.o)
 .text.ftp_log  0x000000000000fd00       0xa0 networking/lib.a(ftpgetput.o)
 .text.ftpgetput_main
                0x000000000000fda0      0xd58 networking/lib.a(ftpgetput.o)
                0x000000000000fda0                ftpgetput_main
 .text.ifconfig_main
                0x0000000000010af8      0x540 networking/lib.a(ifconfig.o)
                0x0000000000010af8                ifconfig_main
 .text.get_afntype
                0x0000000000011038       0x30 networking/lib.a(interface.o)
 .text.hexchar2int
                0x0000000000011068       0x2c networking/lib.a(interface.o)
 .text.ether_input
                0x0000000000011094       0xc8 networking/lib.a(interface.o)
 .text.add_interface
                0x000000000001115c       0x9c networking/lib.a(interface.o)
 .text.if_readconf
                0x00000000000111f8       0xc4 networking/lib.a(interface.o)
 .text.if_readlist_proc
                0x00000000000112bc      0x388 networking/lib.a(interface.o)
 .text.do_if_fetch
                0x0000000000011644      0x2e4 networking/lib.a(interface.o)
 .text.print_bytes_scaled
                0x0000000000011928       0x98 networking/lib.a(interface.o)
 .text.UNSPEC_print
                0x00000000000119c0       0x7c networking/lib.a(interface.o)
 .text.UNSPEC_sprint
                0x0000000000011a3c       0x30 networking/lib.a(interface.o)
 .text.INET6_input
                0x0000000000011a6c        0x4 networking/lib.a(interface.o)
 .text.INET6_sprint
                0x0000000000011a70       0x5c networking/lib.a(interface.o)
 .text.INET_input
                0x0000000000011acc        0x8 networking/lib.a(interface.o)
 .text.INET_sprint
                0x0000000000011ad4       0x60 networking/lib.a(interface.o)
 .text.ether_print
                0x0000000000011b34       0x60 networking/lib.a(interface.o)
 .text.get_hwntype
                0x0000000000011b94       0x30 networking/lib.a(interface.o)
                0x0000000000011b94                get_hwntype
 .text.ife_print
                0x0000000000011bc4      0x8a8 networking/lib.a(interface.o)
 .text.display_interfaces
                0x000000000001246c       0xe0 networking/lib.a(interface.o)
                0x000000000001246c                display_interfaces
 .text.nc_main  0x000000000001254c      0x180 networking/lib.a(nc.o)
                0x000000000001254c                nc_main
 .text.logStat  0x00000000000126cc      0x3fc networking/lib.a(ping.o)
 .text.cmsCleanup
                0x0000000000012ac8       0x30 networking/lib.a(ping.o)
 .text.sendping_tail
                0x0000000000012af8      0x270 networking/lib.a(ping.o)
 .text.sendping6
                0x0000000000012d68       0xa4 networking/lib.a(ping.o)
 .text.sendping4
                0x0000000000012e0c      0x128 networking/lib.a(ping.o)
 .text.print_stats_and_exit
                0x0000000000012f34      0x344 networking/lib.a(ping.o)
 .text.unpack_tail.isra.0
                0x0000000000013278      0x2d8 networking/lib.a(ping.o)
 .text.common_ping_main
                0x0000000000013550      0xf5c networking/lib.a(ping.o)
 .text.ping_main
                0x00000000000144ac        0xc networking/lib.a(ping.o)
                0x00000000000144ac                ping_main
 .text.ping6_main
                0x00000000000144b8        0xc networking/lib.a(ping.o)
                0x00000000000144b8                ping6_main
 .text.set_flags
                0x00000000000144c4       0x4c networking/lib.a(route.o)
 .text.kw_lookup
                0x0000000000014510       0x80 networking/lib.a(route.o)
 .text.INET6_displayroutes
                0x0000000000014590      0x224 networking/lib.a(route.o)
 .text.INET6_setroute
                0x00000000000147b4      0x258 networking/lib.a(route.o)
 .text.INET_setroute
                0x0000000000014a0c      0x3cc networking/lib.a(route.o)
 .text.bb_displayroutes
                0x0000000000014dd8      0x21c networking/lib.a(route.o)
                0x0000000000014dd8                bb_displayroutes
 .text.route_main
                0x0000000000014ff4      0x180 networking/lib.a(route.o)
                0x0000000000014ff4                route_main
 .text.getDevInfo
                0x0000000000015174       0xec networking/lib.a(sendarp.o)
 .text.sendarp_main
                0x0000000000015260      0x298 networking/lib.a(sendarp.o)
                0x0000000000015260                sendarp_main
 .text.tftp_protocol.constprop.0
                0x00000000000154f8      0x998 networking/lib.a(tftp.o)
 .text.tftp_main
                0x0000000000015e90      0x344 networking/lib.a(tftp.o)
                0x0000000000015e90                tftp_main
 .text.tftpd_nak
                0x00000000000161d4      0x1a8 networking/lib.a(tftpd.o)
 .text.common_exit.constprop.5
                0x000000000001637c       0x24 networking/lib.a(tftpd.o)
 .text.handler_sigterm
                0x00000000000163a0       0x30 networking/lib.a(tftpd.o)
 .text.perror_msg_and_die
                0x00000000000163d0       0x1c networking/lib.a(tftpd.o)
 .text.tftpd_ack
                0x00000000000163ec       0x44 networking/lib.a(tftpd.o)
 .text.tftpd_daemon.isra.2
                0x0000000000016430      0x6f8 networking/lib.a(tftpd.o)
 .text.tftpd_main
                0x0000000000016b28       0x98 networking/lib.a(tftpd.o)
                0x0000000000016b28                tftpd_main
 .text.logStat  0x0000000000016bc0      0x230 networking/lib.a(traceroute.o)
 .text.cmsCleanup
                0x0000000000016df0       0x30 networking/lib.a(traceroute.o)
 .text.common_traceroute_main
                0x0000000000016e20     0x10e4 networking/lib.a(traceroute.o)
 .text.traceroute_main
                0x0000000000017f04        0x8 networking/lib.a(traceroute.o)
                0x0000000000017f04                traceroute_main
 .text.traceroute6_main
                0x0000000000017f0c        0x8 networking/lib.a(traceroute.o)
                0x0000000000017f0c                traceroute6_main
 .text.xfind_str
                0x0000000000017f14       0x40 networking/lib.a(vconfig.o)
 .text.vconfig_main
                0x0000000000017f54      0x160 networking/lib.a(vconfig.o)
                0x0000000000017f54                vconfig_main
 .text.sanitize_string
                0x00000000000180b4       0x24 networking/lib.a(wget.o)
 .text.open_socket
                0x00000000000180d8       0x30 networking/lib.a(wget.o)
 .text.parse_url
                0x0000000000018108      0x1ac networking/lib.a(wget.o)
 .text.ftpcmd   0x00000000000182b4       0xcc networking/lib.a(wget.o)
 .text.gethdr.constprop.1
                0x0000000000018380      0x154 networking/lib.a(wget.o)
 .text.safe_fgets.constprop.2
                0x00000000000184d4       0x68 networking/lib.a(wget.o)
 .text.retrieve_file_data
                0x000000000001853c      0x2e0 networking/lib.a(wget.o)
 .text.wget_main
                0x000000000001881c      0xcbc networking/lib.a(wget.o)
                0x000000000001881c                wget_main
 .text.kill_main
                0x00000000000194d8      0x340 procps/lib.a(kill.o)
                0x00000000000194d8                kill_main
 .text.ps_main  0x0000000000019818       0xd0 procps/lib.a(ps.o)
                0x0000000000019818                ps_main
 .text.prio_sort
                0x00000000000198e8       0x10 procps/lib.a(top.o)
 .text.affinity_sort
                0x00000000000198f8       0x10 procps/lib.a(top.o)
 .text.pid_sort
                0x0000000000019908       0x10 procps/lib.a(top.o)
 .text.mem_sort
                0x0000000000019918       0x24 procps/lib.a(top.o)
 .text.pcpu_sort
                0x000000000001993c       0x10 procps/lib.a(top.o)
 .text.time_sort
                0x000000000001994c       0x24 procps/lib.a(top.o)
 .text.mult_lvl_cmp
                0x0000000000019970       0x64 procps/lib.a(top.o)
 .text.reset_term
                0x00000000000199d4       0x14 procps/lib.a(top.o)
 .text.sig_catcher
                0x00000000000199e8       0x10 procps/lib.a(top.o)
 .text.display_process_list
                0x00000000000199f8      0x9f8 procps/lib.a(top.o)
 .text.clearmems
                0x000000000001a3f0       0x5c procps/lib.a(top.o)
 .text.read_cpu_jiffy
                0x000000000001a44c      0x120 procps/lib.a(top.o)
 .text.get_jiffy_counts
                0x000000000001a56c      0x2a0 procps/lib.a(top.o)
 .text.do_stats
                0x000000000001a80c      0x254 procps/lib.a(top.o)
 .text.top_main
                0x000000000001aa60      0x938 procps/lib.a(top.o)
                0x000000000001aa60                top_main
 .text.isdigit_str9
                0x000000000001b398       0x38 shell/lib.a(ash.o)
 .text.var_end  0x000000000001b3d0       0x28 shell/lib.a(ash.o)
 .text.stunalloc
                0x000000000001b3f8       0x38 shell/lib.a(ash.o)
 .text.setstackmark
                0x000000000001b430       0x44 shell/lib.a(ash.o)
 .text.prefix   0x000000000001b474       0x28 shell/lib.a(ash.o)
 .text.is_number
                0x000000000001b49c       0x30 shell/lib.a(ash.o)
 .text.endofname
                0x000000000001b4cc       0x74 shell/lib.a(ash.o)
 .text.varcmp   0x000000000001b540       0x40 shell/lib.a(ash.o)
 .text.hashvar  0x000000000001b580       0x58 shell/lib.a(ash.o)
 .text.vpcmp    0x000000000001b5d8        0xc shell/lib.a(ash.o)
 .text.findvar  0x000000000001b5e4       0x3c shell/lib.a(ash.o)
 .text.lookupvar
                0x000000000001b620       0x40 shell/lib.a(ash.o)
 .text.bltinlookup
                0x000000000001b660       0x54 shell/lib.a(ash.o)
 .text.setprompt
                0x000000000001b6b4       0x8c shell/lib.a(ash.o)
 .text.set_curjob
                0x000000000001b740       0x48 shell/lib.a(ash.o)
 .text.getstatus
                0x000000000001b788       0x84 shell/lib.a(ash.o)
 .text.need_to_remember
                0x000000000001b80c       0x40 shell/lib.a(ash.o)
 .text.is_hidden_fd
                0x000000000001b84c       0x80 shell/lib.a(ash.o)
 .text.esclen   0x000000000001b8cc       0x2c shell/lib.a(ash.o)
 .text.falsecmd
                0x000000000001b8f8        0x8 shell/lib.a(ash.o)
 .text.truecmd  0x000000000001b900        0x8 shell/lib.a(ash.o)
 .text.isassignment
                0x000000000001b908       0x30 shell/lib.a(ash.o)
 .text.bltincmd
                0x000000000001b938       0x14 shell/lib.a(ash.o)
 .text.goodname
                0x000000000001b94c       0x18 shell/lib.a(ash.o)
 .text.pungetc  0x000000000001b964       0x28 shell/lib.a(ash.o)
 .text.raise_exception
                0x000000000001b98c       0x3c shell/lib.a(ash.o)
 .text.calcsize
                0x000000000001b9c8      0x144 shell/lib.a(ash.o)
 .text.sizenodelist
                0x000000000001bb0c       0x3c shell/lib.a(ash.o)
 .text.SIT      0x000000000001bb48       0xa4 shell/lib.a(ash.o)
 .text.pushfile
                0x000000000001bbec       0x30 shell/lib.a(ash.o)
 .text.freealias
                0x000000000001bc1c       0x44 shell/lib.a(ash.o)
 .text.freefunc
                0x000000000001bc60       0x20 shell/lib.a(ash.o)
 .text.freeparam
                0x000000000001bc80       0x38 shell/lib.a(ash.o)
 .text.setparam
                0x000000000001bcb8       0x8c shell/lib.a(ash.o)
 .text.scanright
                0x000000000001bd44       0xa0 shell/lib.a(ash.o)
 .text.scanleft
                0x000000000001bde4       0x78 shell/lib.a(ash.o)
 .text.__lookupalias
                0x000000000001be5c       0x74 shell/lib.a(ash.o)
 .text.lookupalias
                0x000000000001bed0       0x2c shell/lib.a(ash.o)
 .text.msort    0x000000000001befc       0xbc shell/lib.a(ash.o)
 .text.pstrcmp  0x000000000001bfb8        0xc shell/lib.a(ash.o)
 .text.ignoresig
                0x000000000001bfc4       0x50 shell/lib.a(ash.o)
 .text.setsignal
                0x000000000001c014      0x180 shell/lib.a(ash.o)
 .text.nodeckstrdup
                0x000000000001c194       0x40 shell/lib.a(ash.o)
 .text.copynode
                0x000000000001c1d4      0x164 shell/lib.a(ash.o)
 .text.copynodelist
                0x000000000001c338       0x54 shell/lib.a(ash.o)
 .text.cmdlookup
                0x000000000001c38c       0xd8 shell/lib.a(ash.o)
 .text.errmsg   0x000000000001c464       0x18 shell/lib.a(ash.o)
 .text.tokname  0x000000000001c47c       0x50 shell/lib.a(ash.o)
 .text.findkwd  0x000000000001c4cc       0x34 shell/lib.a(ash.o)
 .text.find_builtin
                0x000000000001c500       0x30 shell/lib.a(ash.o)
 .text.ulimitcmd
                0x000000000001c530        0x8 shell/lib.a(ash.o)
 .text.tryexec  0x000000000001c538       0xc8 shell/lib.a(ash.o)
 .text.raise_interrupt
                0x000000000001c600       0x84 shell/lib.a(ash.o)
 .text.int_on   0x000000000001c684       0x44 shell/lib.a(ash.o)
 .text.recordregion
                0x000000000001c6c8       0x90 shell/lib.a(ash.o)
 .text.fmtstr   0x000000000001c758       0x5c shell/lib.a(ash.o)
 .text.removerecordregions
                0x000000000001c7b4      0x15c shell/lib.a(ash.o)
 .text.freejob  0x000000000001c910       0x90 shell/lib.a(ash.o)
 .text.makejob  0x000000000001c9a0      0x198 shell/lib.a(ash.o)
 .text.unalias  0x000000000001cb38       0x60 shell/lib.a(ash.o)
 .text.popstring
                0x000000000001cb98       0xec shell/lib.a(ash.o)
 .text.popfile  0x000000000001cc84       0x88 shell/lib.a(ash.o)
 .text.popallfiles
                0x000000000001cd0c       0x34 shell/lib.a(ash.o)
 .text.outstr   0x000000000001cd40       0x38 shell/lib.a(ash.o)
 .text.out1str  0x000000000001cd78       0x20 shell/lib.a(ash.o)
 .text.flush_stdout_stderr
                0x000000000001cd98       0x38 shell/lib.a(ash.o)
 .text.out2str  0x000000000001cdd0       0x2c shell/lib.a(ash.o)
 .text.stoppedjobs
                0x000000000001cdfc       0x78 shell/lib.a(ash.o)
 .text.pgetc    0x000000000001ce74      0x2a8 shell/lib.a(ash.o)
 .text.pgetc_without_PEOA
                0x000000000001d11c       0x18 shell/lib.a(ash.o)
 .text.popstackmark
                0x000000000001d134       0x94 shell/lib.a(ash.o)
 .text.setinputstring
                0x000000000001d1c8       0x68 shell/lib.a(ash.o)
 .text.pushstring
                0x000000000001d230       0xb8 shell/lib.a(ash.o)
 .text.delete_cmd_entry
                0x000000000001d2e8       0x68 shell/lib.a(ash.o)
 .text.out1fmt  0x000000000001d350       0x58 shell/lib.a(ash.o)
 .text.timescmd
                0x000000000001d3a8       0xb8 shell/lib.a(ash.o)
 .text.optschanged
                0x000000000001d460       0xbc shell/lib.a(ash.o)
 .text.helpcmd  0x000000000001d51c       0x98 shell/lib.a(ash.o)
 .text.clearcmdentry
                0x000000000001d5b4       0xac shell/lib.a(ash.o)
 .text.changepath
                0x000000000001d660      0x13c shell/lib.a(ash.o)
 .text.signal_handler
                0x000000000001d79c       0x60 shell/lib.a(ash.o)
 .text.force_int_on
                0x000000000001d7fc       0x38 shell/lib.a(ash.o)
 .text.evalbltin
                0x000000000001d834      0x138 shell/lib.a(ash.o)
 .text.outcslow.constprop.1
                0x000000000001d96c       0x84 shell/lib.a(ash.o)
 .text.ash_vmsg
                0x000000000001d9f0       0xe8 shell/lib.a(ash.o)
 .text.ash_vmsg_and_raise
                0x000000000001dad8       0x20 shell/lib.a(ash.o)
 .text.ash_msg_and_raise_error
                0x000000000001daf8       0x1c shell/lib.a(ash.o)
 .text.varunset
                0x000000000001db14       0xa0 shell/lib.a(ash.o)
 .text.setvareq
                0x000000000001dbb4      0x11c shell/lib.a(ash.o)
 .text.listsetvar
                0x000000000001dcd0       0x58 shell/lib.a(ash.o)
 .text.setvar   0x000000000001dd28       0xfc shell/lib.a(ash.o)
 .text.setvar2  0x000000000001de24        0x8 shell/lib.a(ash.o)
 .text.unsetvar
                0x000000000001de2c       0xc4 shell/lib.a(ash.o)
 .text.setpwd   0x000000000001def0      0x104 shell/lib.a(ash.o)
 .text.localcmd
                0x000000000001dff4      0x13c shell/lib.a(ash.o)
 .text.number   0x000000000001e130       0x34 shell/lib.a(ash.o)
 .text.returncmd
                0x000000000001e164       0x4c shell/lib.a(ash.o)
 .text.exitcmd  0x000000000001e1b0       0x44 shell/lib.a(ash.o)
 .text.shiftcmd
                0x000000000001e1f4       0xc8 shell/lib.a(ash.o)
 .text.forkchild
                0x000000000001e2bc      0x23c shell/lib.a(ash.o)
 .text.copyfd   0x000000000001e4f8       0x60 shell/lib.a(ash.o)
 .text.popredir
                0x000000000001e558       0xf8 shell/lib.a(ash.o)
 .text.clearredir
                0x000000000001e650       0x48 shell/lib.a(ash.o)
 .text.raise_error_syntax
                0x000000000001e698       0x18 shell/lib.a(ash.o)
 .text.raise_error_unexpected_syntax
                0x000000000001e6b0       0x74 shell/lib.a(ash.o)
 .text.ash_arith
                0x000000000001e724       0xe0 shell/lib.a(ash.o)
 .text.stalloc  0x000000000001e804       0xc0 shell/lib.a(ash.o)
 .text.ststrdup
                0x000000000001e8c4       0x28 shell/lib.a(ash.o)
 .text.stzalloc
                0x000000000001e8ec       0x1c shell/lib.a(ash.o)
 .text.addfname
                0x000000000001e908       0x3c shell/lib.a(ash.o)
 .text.expmeta  0x000000000001e944      0x2a8 shell/lib.a(ash.o)
 .text.makename
                0x000000000001ebec       0x38 shell/lib.a(ash.o)
 .text.fixredir
                0x000000000001ec24       0x88 shell/lib.a(ash.o)
 .text.growstackblock
                0x000000000001ecac      0x114 shell/lib.a(ash.o)
 .text.makestrspace
                0x000000000001edc0       0x50 shell/lib.a(ash.o)
 .text.memtodest
                0x000000000001ee10       0x88 shell/lib.a(ash.o)
 .text.stack_nputstr
                0x000000000001ee98       0x2c shell/lib.a(ash.o)
 .text.stack_putstr
                0x000000000001eec4       0x24 shell/lib.a(ash.o)
 .text.cvtnum   0x000000000001eee8       0x4c shell/lib.a(ash.o)
 .text.single_quote
                0x000000000001ef34       0xe4 shell/lib.a(ash.o)
 .text.printalias
                0x000000000001f018       0x2c shell/lib.a(ash.o)
 .text.aliascmd
                0x000000000001f044      0x1a0 shell/lib.a(ash.o)
 .text.rmescapes
                0x000000000001f1e4      0x178 shell/lib.a(ash.o)
 .text.preglob  0x000000000001f35c       0x14 shell/lib.a(ash.o)
 .text.growstackstr
                0x000000000001f370       0x68 shell/lib.a(ash.o)
 .text._STPUTC  0x000000000001f3d8       0x40 shell/lib.a(ash.o)
 .text.varvalue
                0x000000000001f418      0x3cc shell/lib.a(ash.o)
 .text.listvars
                0x000000000001f7e4       0xbc shell/lib.a(ash.o)
 .text.showvars
                0x000000000001f8a0       0xf0 shell/lib.a(ash.o)
 .text.path_advance
                0x000000000001f990      0x12c shell/lib.a(ash.o)
 .text.readtoken1
                0x000000000001fabc     0x11e8 shell/lib.a(ash.o)
 .text.parseheredoc
                0x0000000000020ca4       0xb0 shell/lib.a(ash.o)
 .text.xxreadtoken
                0x0000000000020d54      0x214 shell/lib.a(ash.o)
 .text.readtoken
                0x0000000000020f68      0x118 shell/lib.a(ash.o)
 .text.parsefname
                0x0000000000021080      0x160 shell/lib.a(ash.o)
 .text.peektoken
                0x00000000000211e0       0x34 shell/lib.a(ash.o)
 .text.parse_command
                0x0000000000021214      0x868 shell/lib.a(ash.o)
 .text.pipeline
                0x0000000000021a7c      0x108 shell/lib.a(ash.o)
 .text.list     0x0000000000021b84      0x1dc shell/lib.a(ash.o)
 .text.parsecmd
                0x0000000000021d60       0x80 shell/lib.a(ash.o)
 .text.nextopt  0x0000000000021de0      0x138 shell/lib.a(ash.o)
 .text.cdopt    0x0000000000021f18       0x40 shell/lib.a(ash.o)
 .text.pwdcmd   0x0000000000021f58       0x6c shell/lib.a(ash.o)
 .text.unsetcmd
                0x0000000000021fc4       0x94 shell/lib.a(ash.o)
 .text.unaliascmd
                0x0000000000022058      0x138 shell/lib.a(ash.o)
 .text.exportcmd
                0x0000000000022190       0xc4 shell/lib.a(ash.o)
 .text.readcmd  0x0000000000022254      0x124 shell/lib.a(ash.o)
 .text.letcmd   0x0000000000022378       0x44 shell/lib.a(ash.o)
 .text.breakcmd
                0x00000000000223bc       0x9c shell/lib.a(ash.o)
 .text.umaskcmd
                0x0000000000022458      0x1ec shell/lib.a(ash.o)
 .text.setinputfile
                0x0000000000022644      0x114 shell/lib.a(ash.o)
 .text.cdcmd    0x0000000000022758      0x408 shell/lib.a(ash.o)
 .text.ash_msg_and_raise
                0x0000000000022b60       0x18 shell/lib.a(ash.o)
 .text.shellexec
                0x0000000000022b78      0x138 shell/lib.a(ash.o)
 .text.execcmd  0x0000000000022cb0       0x64 shell/lib.a(ash.o)
 .text.ash_msg  0x0000000000022d14       0x24 shell/lib.a(ash.o)
 .text.options  0x0000000000022d38      0x390 shell/lib.a(ash.o)
 .text.setcmd   0x00000000000230c8       0x90 shell/lib.a(ash.o)
 .text.trapcmd  0x0000000000023158      0x170 shell/lib.a(ash.o)
 .text.dowait   0x00000000000232c8      0x1ac shell/lib.a(ash.o)
 .text.forkshell
                0x0000000000023474      0x114 shell/lib.a(ash.o)
 .text.blocking_wait_with_raise_on_sig
                0x0000000000023588       0x48 shell/lib.a(ash.o)
 .text.waitcmd  0x00000000000235d0      0x2c0 shell/lib.a(ash.o)
 .text.waitforjob
                0x0000000000023890       0x68 shell/lib.a(ash.o)
 .text.expandarg
                0x00000000000238f8      0x564 shell/lib.a(ash.o)
 .text.expredir
                0x0000000000023e5c       0xfc shell/lib.a(ash.o)
 .text.redirect
                0x0000000000023f58      0x600 shell/lib.a(ash.o)
 .text.redirectsafe
                0x0000000000024558       0xd8 shell/lib.a(ash.o)
 .text.evaltree
                0x0000000000024630      0x518 shell/lib.a(ash.o)
 .text.argstr   0x0000000000024b48      0x6f8 shell/lib.a(ash.o)
 .text.subevalvar
                0x0000000000025240      0x6d0 shell/lib.a(ash.o)
 .text.evalvar  0x0000000000025910      0x330 shell/lib.a(ash.o)
 .text.evalstring
                0x0000000000025c40       0x74 shell/lib.a(ash.o)
 .text.evalcmd  0x0000000000025cb4       0xa0 shell/lib.a(ash.o)
 .text.exitshell
                0x0000000000025d54       0xa4 shell/lib.a(ash.o)
 .text.cmdloop  0x0000000000025df8       0xfc shell/lib.a(ash.o)
 .text.find_command
                0x0000000000025ef4      0x464 shell/lib.a(ash.o)
 .text.typecmd  0x0000000000026358      0x294 shell/lib.a(ash.o)
 .text.hashcmd  0x00000000000265ec      0x1dc shell/lib.a(ash.o)
 .text.evalpipe
                0x00000000000267c8      0x1d8 shell/lib.a(ash.o)
 .text.dotcmd   0x00000000000269a0      0x184 shell/lib.a(ash.o)
 .text.read_profile
                0x0000000000026b24       0x30 shell/lib.a(ash.o)
 .text.evalloop
                0x0000000000026b54      0x14c shell/lib.a(ash.o)
 .text.evalfun  0x0000000000026ca0      0x27c shell/lib.a(ash.o)
 .text.evalsubshell
                0x0000000000026f1c       0xe0 shell/lib.a(ash.o)
 .text.evalcase
                0x0000000000026ffc      0x194 shell/lib.a(ash.o)
 .text.evalfor  0x0000000000027190      0x16c shell/lib.a(ash.o)
 .text.evalcommand
                0x00000000000272fc      0x564 shell/lib.a(ash.o)
 .text.ash_main
                0x0000000000027860      0x69c shell/lib.a(ash.o)
                0x0000000000027860                ash_main
 .text.arith    0x0000000000027efc      0x368 shell/lib.a(math.o)
                0x0000000000027efc                arith
 .text.arith_lookup_val
                0x0000000000028264       0xac shell/lib.a(math.o)
 .text.arith_apply
                0x0000000000028310      0x3a4 shell/lib.a(math.o)
 .text.printlim.isra.0
                0x00000000000286b4       0x6c shell/lib.a(shell_common.o)
 .text.is_well_formed_var_name
                0x0000000000028720       0x78 shell/lib.a(shell_common.o)
                0x0000000000028720                is_well_formed_var_name
 .text.shell_builtin_read
                0x0000000000028798      0x540 shell/lib.a(shell_common.o)
                0x0000000000028798                shell_builtin_read
 .text.shell_builtin_ulimit
                0x0000000000028cd8      0x254 shell/lib.a(shell_common.o)
                0x0000000000028cd8                shell_builtin_ulimit
 .text.klogd_signal
                0x0000000000028f2c       0x44 sysklogd/lib.a(klogd.o)
 .text.klogd_main
                0x0000000000028f70      0x284 sysklogd/lib.a(klogd.o)
                0x0000000000028f70                klogd_main
 .text.error_exit
                0x00000000000291f4       0x3c sysklogd/lib.a(logread.o)
 .text.sem_up   0x0000000000029230       0x30 sysklogd/lib.a(logread.o)
 .text.interrupted
                0x0000000000029260       0x44 sysklogd/lib.a(logread.o)
 .text.logread_main
                0x00000000000292a4      0x258 sysklogd/lib.a(logread.o)
                0x00000000000292a4                logread_main
 .text.decode   0x00000000000294fc       0x58 sysklogd/lib.a(syslogd_and_logger.o)
 .text.create_socket
                0x0000000000029554       0xac sysklogd/lib.a(syslogd_and_logger.o)
 .text.timestamp_and_log
                0x0000000000029600      0x3f4 sysklogd/lib.a(syslogd_and_logger.o)
 .text.syslogd_main
                0x00000000000299f4      0x6d4 sysklogd/lib.a(syslogd_and_logger.o)
                0x00000000000299f4                syslogd_main
 .text.logger_main
                0x000000000002a0c8      0x240 sysklogd/lib.a(syslogd_and_logger.o)
                0x000000000002a0c8                logger_main
 .text.dmesg_main
                0x000000000002a308      0x11c util-linux/lib.a(dmesg.o)
                0x000000000002a308                dmesg_main
 .text.gotsig   0x000000000002a424       0x48 util-linux/lib.a(more.o)
 .text.more_main
                0x000000000002a46c      0x4f4 util-linux/lib.a(more.o)
                0x000000000002a46c                more_main
 .text.parse_mount_options
                0x000000000002a960      0x124 util-linux/lib.a(mount.o)
 .text.append_mount_options
                0x000000000002aa84       0xfc util-linux/lib.a(mount.o)
 .text.mount_it_now
                0x000000000002ab80       0x9c util-linux/lib.a(mount.o)
 .text.singlemount
                0x000000000002ac1c      0x2b4 util-linux/lib.a(mount.o)
 .text.mount_main
                0x000000000002aed0      0x578 util-linux/lib.a(mount.o)
                0x000000000002aed0                mount_main
 .text.umount_main
                0x000000000002b448      0x338 util-linux/lib.a(umount.o)
                0x000000000002b448                umount_main
 .text.make_new_name_gunzip
                0x000000000002b780       0x88 archival/lib.a(bbunzip.o)
 .text.unpack_gunzip
                0x000000000002b808       0x70 archival/lib.a(bbunzip.o)
 .text.open_to_or_warn
                0x000000000002b878       0x38 archival/lib.a(bbunzip.o)
 .text.bbunpack
                0x000000000002b8b0      0x264 archival/lib.a(bbunzip.o)
                0x000000000002b8b0                bbunpack
 .text.gunzip_main
                0x000000000002bb14       0x8c archival/lib.a(bbunzip.o)
                0x000000000002bb14                gunzip_main
 .text.get_bits
                0x000000000002bba0       0xd8 archival/libunarchive/lib.a(decompress_bunzip2.o)
 .text.get_next_block
                0x000000000002bc78      0x824 archival/libunarchive/lib.a(decompress_bunzip2.o)
 .text.read_bunzip
                0x000000000002c49c      0x15c archival/libunarchive/lib.a(decompress_bunzip2.o)
                0x000000000002c49c                read_bunzip
 .text.start_bunzip
                0x000000000002c5f8       0xe0 archival/libunarchive/lib.a(decompress_bunzip2.o)
                0x000000000002c5f8                start_bunzip
 .text.dealloc_bunzip
                0x000000000002c6d8       0x1c archival/libunarchive/lib.a(decompress_bunzip2.o)
                0x000000000002c6d8                dealloc_bunzip
 .text.inflate_codes_setup
                0x000000000002c6f4       0x48 archival/libunarchive/lib.a(decompress_unzip.o)
 .text.calculate_gunzip_crc
                0x000000000002c73c       0x54 archival/libunarchive/lib.a(decompress_unzip.o)
 .text.huft_free
                0x000000000002c790       0x24 archival/libunarchive/lib.a(decompress_unzip.o)
 .text.huft_free_all
                0x000000000002c7b4       0x28 archival/libunarchive/lib.a(decompress_unzip.o)
 .text.buffer_read_le_u32
                0x000000000002c7dc       0x30 archival/libunarchive/lib.a(decompress_unzip.o)
 .text.huft_build
                0x000000000002c80c      0x544 archival/libunarchive/lib.a(decompress_unzip.o)
 .text.abort_unzip
                0x000000000002cd50       0x18 archival/libunarchive/lib.a(decompress_unzip.o)
 .text.fill_bitbuffer
                0x000000000002cd68       0xf0 archival/libunarchive/lib.a(decompress_unzip.o)
 .text.inflate_block
                0x000000000002ce58      0x654 archival/libunarchive/lib.a(decompress_unzip.o)
 .text.inflate_codes
                0x000000000002d4ac      0x370 archival/libunarchive/lib.a(decompress_unzip.o)
 .text.inflate_unzip_internal
                0x000000000002d81c      0x2ac archival/libunarchive/lib.a(decompress_unzip.o)
 .text.top_up   0x000000000002dac8       0x90 archival/libunarchive/lib.a(decompress_unzip.o)
 .text.unpack_gz_stream_with_info
                0x000000000002db58      0x294 archival/libunarchive/lib.a(decompress_unzip.o)
                0x000000000002db58                unpack_gz_stream_with_info
 .text.bb_cat   0x000000000002ddec       0x74 coreutils/lib.a(cat.o)
                0x000000000002ddec                bb_cat
 .text.cat_main
                0x000000000002de60       0x44 coreutils/lib.a(cat.o)
                0x000000000002de60                cat_main
 .text.fileAction
                0x000000000002dea4       0x94 coreutils/lib.a(chmod.o)
 .text.chmod_main
                0x000000000002df38      0x124 coreutils/lib.a(chmod.o)
                0x000000000002df38                chmod_main
 .text.cp_main  0x000000000002e05c      0x15c coreutils/lib.a(cp.o)
                0x000000000002e05c                cp_main
 .text.maybe_set_utc
                0x000000000002e1b8       0x18 coreutils/lib.a(date.o)
 .text.date_main
                0x000000000002e1d0      0x300 coreutils/lib.a(date.o)
                0x000000000002e1d0                date_main
 .text.full_write_or_warn
                0x000000000002e4d0       0x44 coreutils/lib.a(dd.o)
 .text.write_and_stats
                0x000000000002e514      0x1d8 coreutils/lib.a(dd.o)
 .text.dd_output_status
                0x000000000002e6ec      0x290 coreutils/lib.a(dd.o)
 .text.dd_main  0x000000000002e97c      0x864 coreutils/lib.a(dd.o)
                0x000000000002e97c                dd_main
 .text.kscale   0x000000000002f1e0       0x18 coreutils/lib.a(df.o)
 .text.df_main  0x000000000002f1f8      0x2b8 coreutils/lib.a(df.o)
                0x000000000002f1f8                df_main
 .text.echo_main
                0x000000000002f4b0       0xc0 coreutils/lib.a(echo.o)
                0x000000000002f4b0                echo_main
 .text.null     0x000000000002f570       0x44 coreutils/lib.a(expr.o)
 .text.tostring
                0x000000000002f5b4       0x38 coreutils/lib.a(expr.o)
 .text.int_value
                0x000000000002f5ec       0x18 coreutils/lib.a(expr.o)
 .text.str_value
                0x000000000002f604       0x30 coreutils/lib.a(expr.o)
 .text.docolon  0x000000000002f634      0x110 coreutils/lib.a(expr.o)
 .text.toarith  0x000000000002f744       0x60 coreutils/lib.a(expr.o)
 .text.arithmetic_common
                0x000000000002f7a4       0x9c coreutils/lib.a(expr.o)
 .text.freev    0x000000000002f840       0x28 coreutils/lib.a(expr.o)
 .text.nextarg  0x000000000002f868       0x5c coreutils/lib.a(expr.o)
 .text.eval     0x000000000002f8c4       0xac coreutils/lib.a(expr.o)
 .text.eval6    0x000000000002f970      0x38c coreutils/lib.a(expr.o)
 .text.eval5    0x000000000002fcfc       0xa8 coreutils/lib.a(expr.o)
 .text.eval4    0x000000000002fda4       0xe8 coreutils/lib.a(expr.o)
 .text.eval3    0x000000000002fe8c       0xd0 coreutils/lib.a(expr.o)
 .text.eval2    0x000000000002ff5c      0x208 coreutils/lib.a(expr.o)
 .text.eval1    0x0000000000030164       0xcc coreutils/lib.a(expr.o)
 .text.expr_main
                0x0000000000030230       0xd4 coreutils/lib.a(expr.o)
                0x0000000000030230                expr_main
 .text.false_main
                0x0000000000030304        0x8 coreutils/lib.a(false.o)
                0x0000000000030304                false_main
 .text.ln_main  0x000000000003030c      0x250 coreutils/lib.a(ln.o)
                0x000000000003030c                ln_main
 .text.append_char
                0x000000000003055c       0x7c coreutils/lib.a(ls.o)
 .text.count_dirs
                0x00000000000305d8       0x84 coreutils/lib.a(ls.o)
 .text.my_stat  0x000000000003065c       0xc8 coreutils/lib.a(ls.o)
 .text.dnalloc  0x0000000000030724       0x14 coreutils/lib.a(ls.o)
 .text.splitdnarray
                0x0000000000030738       0xa4 coreutils/lib.a(ls.o)
 .text.print_name
                0x00000000000307dc      0x194 coreutils/lib.a(ls.o)
 .text.list_single
                0x0000000000030970      0x4a4 coreutils/lib.a(ls.o)
 .text.showfiles
                0x0000000000030e14      0x274 coreutils/lib.a(ls.o)
 .text.dnsort   0x0000000000031088       0x14 coreutils/lib.a(ls.o)
 .text.sortcmp  0x000000000003109c      0x100 coreutils/lib.a(ls.o)
 .text.showdirs
                0x000000000003119c      0x26c coreutils/lib.a(ls.o)
 .text.ls_main  0x0000000000031408      0x504 coreutils/lib.a(ls.o)
                0x0000000000031408                ls_main
 .text.mkdir_main
                0x000000000003190c       0xd0 coreutils/lib.a(mkdir.o)
                0x000000000003190c                mkdir_main
 .text.mknod_main
                0x00000000000319dc      0x104 coreutils/lib.a(mknod.o)
                0x00000000000319dc                mknod_main
 .text.pwd_main
                0x0000000000031ae0       0x30 coreutils/lib.a(pwd.o)
                0x0000000000031ae0                pwd_main
 .text.rm_main  0x0000000000031b10      0x10c coreutils/lib.a(rm.o)
                0x0000000000031b10                rm_main
 .text.sleep_main
                0x0000000000031c1c       0x5c coreutils/lib.a(sleep.o)
                0x0000000000031c1c                sleep_main
 .text.mode_type_flag
                0x0000000000031c78       0x28 coreutils/lib.a(stty.o)
 .text.set_mode
                0x0000000000031ca0      0x448 coreutils/lib.a(stty.o)
 .text.find_mode
                0x00000000000320e8       0x3c coreutils/lib.a(stty.o)
 .text.find_control
                0x0000000000032124       0x3c coreutils/lib.a(stty.o)
 .text.find_param
                0x0000000000032160       0x34 coreutils/lib.a(stty.o)
 .text.set_control_char_or_die
                0x0000000000032194       0xf8 coreutils/lib.a(stty.o)
 .text.perror_on_device
                0x000000000003228c       0x2c coreutils/lib.a(stty.o)
 .text.wrapf    0x00000000000322b8      0x17c coreutils/lib.a(stty.o)
 .text.display_window_size
                0x0000000000032434       0x94 coreutils/lib.a(stty.o)
 .text.newline  0x00000000000324c8       0x3c coreutils/lib.a(stty.o)
 .text.set_window_size
                0x0000000000032504       0x8c coreutils/lib.a(stty.o)
 .text.display_speed
                0x0000000000032590       0x94 coreutils/lib.a(stty.o)
 .text.recover_mode
                0x0000000000032624       0xd8 coreutils/lib.a(stty.o)
 .text.set_speed_or_die
                0x00000000000326fc       0x48 coreutils/lib.a(stty.o)
 .text.perror_on_device_and_die
                0x0000000000032744       0x30 coreutils/lib.a(stty.o)
 .text.display_recoverable
                0x0000000000032774       0x60 coreutils/lib.a(stty.o)
 .text.do_display
                0x00000000000327d4      0x26c coreutils/lib.a(stty.o)
 .text.stty_main
                0x0000000000032a40      0x610 coreutils/lib.a(stty.o)
                0x0000000000032a40                stty_main
 .text.sync_main
                0x0000000000033050       0x10 coreutils/lib.a(sync.o)
                0x0000000000033050                sync_main
 .text.check_operator
                0x0000000000033060       0x78 coreutils/lib.a(test.o)
 .text.syntax   0x00000000000330d8       0x70 coreutils/lib.a(test.o)
 .text.getn     0x0000000000033148       0x80 coreutils/lib.a(test.o)
 .text.binop    0x00000000000331c8      0x208 coreutils/lib.a(test.o)
 .text.nexpr    0x00000000000333d0      0x3f0 coreutils/lib.a(test.o)
 .text.aexpr    0x00000000000337c0       0x80 coreutils/lib.a(test.o)
 .text.oexpr    0x0000000000033840       0x80 coreutils/lib.a(test.o)
 .text.test_main
                0x00000000000338c0      0x160 coreutils/lib.a(test.o)
                0x00000000000338c0                test_main
 .text.true_main
                0x0000000000033a20        0x8 coreutils/lib.a(true.o)
                0x0000000000033a20                true_main
 .text.tty_main
                0x0000000000033a28       0x44 coreutils/lib.a(tty.o)
                0x0000000000033a28                tty_main
 .text.cp_mv_stat2
                0x0000000000033a6c       0x6c coreutils/libcoreutils/lib.a(cp_mv_stat.o)
                0x0000000000033a6c                cp_mv_stat2
 .text.cp_mv_stat
                0x0000000000033ad8       0x1c coreutils/libcoreutils/lib.a(cp_mv_stat.o)
                0x0000000000033ad8                cp_mv_stat
 .text.getopt_mk_fifo_nod
                0x0000000000033af4       0x54 coreutils/libcoreutils/lib.a(getopt_mk_fifo_nod.o)
                0x0000000000033af4                getopt_mk_fifo_nod
 .text.add_grep_list_data
                0x0000000000033b48       0x18 findutils/lib.a(grep.o)
 .text.print_line.constprop.0
                0x0000000000033b60       0xc0 findutils/lib.a(grep.o)
 .text.grep_file
                0x0000000000033c20      0x488 findutils/lib.a(grep.o)
 .text.file_action_grep
                0x00000000000340a8       0xa4 findutils/lib.a(grep.o)
 .text.grep_main
                0x000000000003414c      0x518 findutils/lib.a(grep.o)
                0x000000000003414c                grep_main
 .text.halt_main
                0x0000000000034664      0x118 init/lib.a(halt.o)
                0x0000000000034664                halt_main
 .text.mark_terminated
                0x000000000003477c       0x48 init/lib.a(init.o)
 .text.set_sane_term
                0x00000000000347c4       0x94 init/lib.a(init.o)
 .text.new_init_action
                0x0000000000034858       0xc0 init/lib.a(init.o)
 .text.reset_sighandlers_and_unblock_sigs
                0x0000000000034918       0x20 init/lib.a(init.o)
 .text.pause_and_low_level_reboot
                0x0000000000034938       0x3c init/lib.a(init.o)
 .text.message  0x0000000000034974      0x124 init/lib.a(init.o)
 .text.parse_inittab
                0x0000000000034a98      0x1ec init/lib.a(init.o)
 .text.open_stdio_to_tty
                0x0000000000034c84       0x88 init/lib.a(init.o)
 .text.init_exec
                0x0000000000034d0c      0x154 init/lib.a(init.o)
 .text.run      0x0000000000034e60      0x150 init/lib.a(init.o)
 .text.run_actions
                0x0000000000034fb0       0xa0 init/lib.a(init.o)
 .text.check_delayed_sigs
                0x0000000000035050       0xc8 init/lib.a(init.o)
 .text.stop_handler
                0x0000000000035118       0x70 init/lib.a(init.o)
 .text.run_shutdown_and_kill_processes
                0x0000000000035188       0x88 init/lib.a(init.o)
 .text.restart_handler
                0x0000000000035210       0x68 init/lib.a(init.o)
 .text.halt_reboot_pwoff
                0x0000000000035278       0x80 init/lib.a(init.o)
 .text.init_main
                0x00000000000352f8      0x42c init/lib.a(init.o)
                0x00000000000352f8                init_main
 .text.uid2uname
                0x0000000000035724       0x14 libbb/lib.a(bb_pwd.o)
                0x0000000000035724                uid2uname
 .text.gid2group
                0x0000000000035738       0x14 libbb/lib.a(bb_pwd.o)
                0x0000000000035738                gid2group
 .text.uid2uname_utoa
                0x000000000003574c       0x20 libbb/lib.a(bb_pwd.o)
                0x000000000003574c                uid2uname_utoa
 .text.gid2group_utoa
                0x000000000003576c       0x20 libbb/lib.a(bb_pwd.o)
                0x000000000003576c                gid2group_utoa
 .text.index_in_strings
                0x000000000003578c       0x54 libbb/lib.a(compare_string_array.o)
                0x000000000003578c                index_in_strings
 .text.index_in_substrings
                0x00000000000357e0       0x8c libbb/lib.a(compare_string_array.o)
                0x00000000000357e0                index_in_substrings
 .text.nth_string
                0x000000000003586c       0x34 libbb/lib.a(compare_string_array.o)
                0x000000000003586c                nth_string
 .text.concat_path_file
                0x00000000000358a0       0x6c libbb/lib.a(concat_path_file.o)
                0x00000000000358a0                concat_path_file
 .text.ask_and_unlink
                0x000000000003590c       0xb4 libbb/lib.a(copy_file.o)
 .text.copy_file
                0x00000000000359c0      0x650 libbb/lib.a(copy_file.o)
                0x00000000000359c0                copy_file
 .text.crc32_filltable
                0x0000000000036010       0x8c libbb/lib.a(crc32.o)
                0x0000000000036010                crc32_filltable
 .text.create_icmp6_socket
                0x000000000003609c       0x64 libbb/lib.a(create_icmp6_socket.o)
                0x000000000003609c                create_icmp6_socket
 .text.create_icmp_socket
                0x0000000000036100       0x64 libbb/lib.a(create_icmp_socket.o)
                0x0000000000036100                create_icmp_socket
 .text.device_open
                0x0000000000036164       0x58 libbb/lib.a(device_open.o)
                0x0000000000036164                device_open
 .text.BB_EXECVP_or_die
                0x00000000000361bc       0x54 libbb/lib.a(execable.o)
                0x00000000000361bc                BB_EXECVP_or_die
 .text.fclose_if_not_stdin
                0x0000000000036210       0x5c libbb/lib.a(fclose_nonstdin.o)
                0x0000000000036210                fclose_if_not_stdin
 .text.fflush_stdout_and_exit
                0x000000000003626c       0x48 libbb/lib.a(fflush_stdout_and_exit.o)
                0x000000000003626c                fflush_stdout_and_exit
 .text.find_mount_point
                0x00000000000362b4      0x144 libbb/lib.a(find_mount_point.o)
                0x00000000000362b4                find_mount_point
 .text.find_pid_by_name
                0x00000000000363f8      0x104 libbb/lib.a(find_pid_by_name.o)
                0x00000000000363f8                find_pid_by_name
 .text.bb_get_chunk_with_continuation
                0x00000000000364fc      0x120 libbb/lib.a(get_line_from_file.o)
                0x00000000000364fc                bb_get_chunk_with_continuation
 .text.bb_get_chunk_from_file
                0x000000000003661c        0x8 libbb/lib.a(get_line_from_file.o)
                0x000000000003661c                bb_get_chunk_from_file
 .text.xmalloc_fgetline
                0x0000000000036624       0x34 libbb/lib.a(get_line_from_file.o)
                0x0000000000036624                xmalloc_fgetline
 .text.getopt32
                0x0000000000036658      0x548 libbb/lib.a(getopt32.o)
                0x0000000000036658                getopt32
 .text.make_human_readable_str
                0x0000000000036ba0      0x1b0 libbb/lib.a(human_readable.o)
                0x0000000000036ba0                make_human_readable_str
 .text.smart_ulltoa5
                0x0000000000036d50      0x23c libbb/lib.a(human_readable.o)
                0x0000000000036d50                smart_ulltoa5
 .text.INET_resolve
                0x0000000000036f8c       0xc4 libbb/lib.a(inet_common.o)
                0x0000000000036f8c                INET_resolve
 .text.INET_rresolve
                0x0000000000037050      0x160 libbb/lib.a(inet_common.o)
                0x0000000000037050                INET_rresolve
 .text.INET6_resolve
                0x00000000000371b0       0x8c libbb/lib.a(inet_common.o)
                0x00000000000371b0                INET6_resolve
 .text.INET6_rresolve
                0x000000000003723c       0xf8 libbb/lib.a(inet_common.o)
                0x000000000003723c                INET6_rresolve
 .text.bb_info_msg
                0x0000000000037334       0xa8 libbb/lib.a(info_msg.o)
                0x0000000000037334                bb_info_msg
 .text.is_in_ino_dev_hashtable
                0x00000000000373dc       0x84 libbb/lib.a(inode_hash.o)
                0x00000000000373dc                is_in_ino_dev_hashtable
 .text.add_to_ino_dev_hashtable
                0x0000000000037460       0xa0 libbb/lib.a(inode_hash.o)
                0x0000000000037460                add_to_ino_dev_hashtable
 .text.is_directory
                0x0000000000037500       0x50 libbb/lib.a(isdirectory.o)
                0x0000000000037500                is_directory
 .text.collapse_pos
                0x0000000000037550       0x78 libbb/lib.a(lineedit.o)
 .text.find_match
                0x00000000000375c8      0x510 libbb/lib.a(lineedit.o)
 .text.put_prompt
                0x0000000000037ad8       0x70 libbb/lib.a(lineedit.o)
 .text.parse_and_put_prompt
                0x0000000000037b48       0x34 libbb/lib.a(lineedit.o)
 .text.free_tab_completion_data
                0x0000000000037b7c       0x60 libbb/lib.a(lineedit.o)
 .text.deinit_S
                0x0000000000037bdc       0x20 libbb/lib.a(lineedit.o)
 .text.save_command_ps_at_cur_history
                0x0000000000037bfc       0x58 libbb/lib.a(lineedit.o)
 .text.add_quote_for_spec_chars
                0x0000000000037c54       0x68 libbb/lib.a(lineedit.o)
 .text.beep     0x0000000000037cbc        0x8 libbb/lib.a(lineedit.o)
 .text.get_previous_history
                0x0000000000037cc4       0x64 libbb/lib.a(lineedit.o)
 .text.get_next_history
                0x0000000000037d28       0x64 libbb/lib.a(lineedit.o)
 .text.put_cur_glyph_and_inc_cursor
                0x0000000000037d8c       0x88 libbb/lib.a(lineedit.o)
 .text.input_forward
                0x0000000000037e14       0x30 libbb/lib.a(lineedit.o)
 .text.put_till_end_and_adv_cursor
                0x0000000000037e44       0x3c libbb/lib.a(lineedit.o)
 .text.goto_new_line
                0x0000000000037e80       0x3c libbb/lib.a(lineedit.o)
 .text.input_backward
                0x0000000000037ebc       0xf0 libbb/lib.a(lineedit.o)
 .text.input_delete
                0x0000000000037fac       0x78 libbb/lib.a(lineedit.o)
 .text.input_backspace
                0x0000000000038024       0x3c libbb/lib.a(lineedit.o)
 .text.redraw   0x0000000000038060       0x4c libbb/lib.a(lineedit.o)
 .text.win_changed
                0x00000000000380ac       0xa4 libbb/lib.a(lineedit.o)
 .text.new_line_input_t
                0x0000000000038150       0x18 libbb/lib.a(lineedit.o)
                0x0000000000038150                new_line_input_t
 .text.read_line_input
                0x0000000000038168      0xebc libbb/lib.a(lineedit.o)
                0x0000000000038168                read_line_input
 .text.llist_add_to
                0x0000000000039024       0x28 libbb/lib.a(llist.o)
                0x0000000000039024                llist_add_to
 .text.llist_add_to_end
                0x000000000003904c       0x34 libbb/lib.a(llist.o)
                0x000000000003904c                llist_add_to_end
 .text.llist_pop
                0x0000000000039080       0x30 libbb/lib.a(llist.o)
                0x0000000000039080                llist_pop
 .text.llist_rev
                0x00000000000390b0       0x28 libbb/lib.a(llist.o)
                0x00000000000390b0                llist_rev
 .text.sanitize_env_if_suid
                0x00000000000390d8       0x64 libbb/lib.a(login.o)
                0x00000000000390d8                sanitize_env_if_suid
 .text.bb_make_directory
                0x000000000003913c      0x1f4 libbb/lib.a(make_directory.o)
                0x000000000003913c                bb_make_directory
 .text.bb_makedev
                0x0000000000039330       0x4c libbb/lib.a(makedev.o)
                0x0000000000039330                bb_makedev
 .text.match_fstype
                0x000000000003937c       0x90 libbb/lib.a(match_fstype.o)
                0x000000000003937c                match_fstype
 .text.bb_mode_string
                0x000000000003940c       0xc4 libbb/lib.a(mode_string.o)
                0x000000000003940c                bb_mode_string
 .text.config_free_data
                0x00000000000394d0       0x1c libbb/lib.a(parse_config.o)
 .text.config_open2
                0x00000000000394ec       0x28 libbb/lib.a(parse_config.o)
                0x00000000000394ec                config_open2
 .text.config_close
                0x0000000000039514       0x24 libbb/lib.a(parse_config.o)
                0x0000000000039514                config_close
 .text.config_read
                0x0000000000039538      0x208 libbb/lib.a(parse_config.o)
                0x0000000000039538                config_read
 .text.bb_parse_mode
                0x0000000000039740      0x2a4 libbb/lib.a(parse_mode.o)
                0x0000000000039740                bb_parse_mode
 .text.bb_perror_nomsg_and_die
                0x00000000000399e4        0x8 libbb/lib.a(perror_nomsg_and_die.o)
                0x00000000000399e4                bb_perror_nomsg_and_die
 .text.printable_string
                0x00000000000399ec       0xcc libbb/lib.a(printable_string.o)
                0x00000000000399ec                printable_string
 .text.bb_process_escape_sequence
                0x0000000000039ab8       0xd4 libbb/lib.a(process_escape_sequence.o)
                0x0000000000039ab8                bb_process_escape_sequence
 .text.fast_strtoul_10
                0x0000000000039b8c       0x40 libbb/lib.a(procps.o)
 .text.fast_strtol_10
                0x0000000000039bcc       0x30 libbb/lib.a(procps.o)
 .text.skip_fields
                0x0000000000039bfc       0x24 libbb/lib.a(procps.o)
 .text.clear_cache
                0x0000000000039c20       0x20 libbb/lib.a(procps.o)
 .text.read_to_buf
                0x0000000000039c40       0x48 libbb/lib.a(procps.o)
 .text.get_cached
                0x0000000000039c88       0x94 libbb/lib.a(procps.o)
 .text.clear_username_cache
                0x0000000000039d1c       0x28 libbb/lib.a(procps.o)
                0x0000000000039d1c                clear_username_cache
 .text.get_cached_username
                0x0000000000039d44       0x20 libbb/lib.a(procps.o)
                0x0000000000039d44                get_cached_username
 .text.get_cached_groupname
                0x0000000000039d64       0x20 libbb/lib.a(procps.o)
                0x0000000000039d64                get_cached_groupname
 .text.free_procps_scan
                0x0000000000039d84       0x2c libbb/lib.a(procps.o)
                0x0000000000039d84                free_procps_scan
 .text.procps_scan
                0x0000000000039db0      0x418 libbb/lib.a(procps.o)
                0x0000000000039db0                procps_scan
 .text.read_cmdline
                0x000000000003a1c8      0x180 libbb/lib.a(procps.o)
                0x000000000003a1c8                read_cmdline
 .text.read_key
                0x000000000003a348      0x264 libbb/lib.a(read_key.o)
                0x000000000003a348                read_key
 .text.nonblock_safe_read
                0x000000000003a5ac       0x64 libbb/lib.a(read_printf.o)
                0x000000000003a5ac                nonblock_safe_read
 .text.xmalloc_read
                0x000000000003a610       0xe0 libbb/lib.a(read_printf.o)
                0x000000000003a610                xmalloc_read
 .text.xmalloc_open_read_close
                0x000000000003a6f0       0x38 libbb/lib.a(read_printf.o)
                0x000000000003a6f0                xmalloc_open_read_close
 .text.xread    0x000000000003a728       0x28 libbb/lib.a(read_printf.o)
                0x000000000003a728                xread
 .text.xread_char
                0x000000000003a750       0x18 libbb/lib.a(read_printf.o)
                0x000000000003a750                xread_char
 .text.open_zipped
                0x000000000003a768        0x8 libbb/lib.a(read_printf.o)
                0x000000000003a768                open_zipped
 .text.xmalloc_open_zipped_read_close
                0x000000000003a770       0x50 libbb/lib.a(read_printf.o)
                0x000000000003a770                xmalloc_open_zipped_read_close
 .text.true_action
                0x000000000003a7c0        0x8 libbb/lib.a(recursive_action.o)
 .text.recursive_action
                0x000000000003a7c8      0x210 libbb/lib.a(recursive_action.o)
                0x000000000003a7c8                recursive_action
 .text.remove_file
                0x000000000003a9d8      0x290 libbb/lib.a(remove_file.o)
                0x000000000003a9d8                remove_file
 .text.safe_gethostname
                0x000000000003ac68       0x38 libbb/lib.a(safe_gethostname.o)
                0x000000000003ac68                safe_gethostname
 .text.safe_poll
                0x000000000003aca0       0x6c libbb/lib.a(safe_poll.o)
                0x000000000003aca0                safe_poll
 .text.safe_strncpy
                0x000000000003ad0c       0x18 libbb/lib.a(safe_strncpy.o)
                0x000000000003ad0c                safe_strncpy
 .text.overlapping_strcpy
                0x000000000003ad24       0x14 libbb/lib.a(safe_strncpy.o)
                0x000000000003ad24                overlapping_strcpy
 .text.record_signo
                0x000000000003ad38       0x14 libbb/lib.a(signals.o)
                0x000000000003ad38                record_signo
 .text.sigaction_set
                0x000000000003ad4c        0x8 libbb/lib.a(signals.o)
                0x000000000003ad4c                sigaction_set
 .text.sigprocmask_allsigs
                0x000000000003ad54       0x24 libbb/lib.a(signals.o)
                0x000000000003ad54                sigprocmask_allsigs
 .text.bb_signals
                0x000000000003ad78       0x44 libbb/lib.a(signals.o)
                0x000000000003ad78                bb_signals
 .text.bb_signals_recursive_norestart
                0x000000000003adbc       0x60 libbb/lib.a(signals.o)
                0x000000000003adbc                bb_signals_recursive_norestart
 .text.sig_unblock
                0x000000000003ae1c       0x30 libbb/lib.a(signals.o)
                0x000000000003ae1c                sig_unblock
 .text.kill_myself_with_sig
                0x000000000003ae4c       0x28 libbb/lib.a(signals.o)
                0x000000000003ae4c                kill_myself_with_sig
 .text.signal_SA_RESTART_empty_mask
                0x000000000003ae74       0x40 libbb/lib.a(signals.o)
                0x000000000003ae74                signal_SA_RESTART_empty_mask
 .text.signal_no_SA_RESTART_empty_mask
                0x000000000003aeb4       0x38 libbb/lib.a(signals.o)
                0x000000000003aeb4                signal_no_SA_RESTART_empty_mask
 .text.bb_simplify_abs_path_inplace
                0x000000000003aeec       0xc4 libbb/lib.a(simplify_path.o)
                0x000000000003aeec                bb_simplify_abs_path_inplace
 .text.bb_simplify_path
                0x000000000003afb0       0x50 libbb/lib.a(simplify_path.o)
                0x000000000003afb0                bb_simplify_path
 .text.skip_whitespace
                0x000000000003b000       0x24 libbb/lib.a(skip_whitespace.o)
                0x000000000003b000                skip_whitespace
 .text.skip_non_whitespace
                0x000000000003b024       0x2c libbb/lib.a(skip_whitespace.o)
                0x000000000003b024                skip_non_whitespace
 .text.skip_dev_pfx
                0x000000000003b050       0x2c libbb/lib.a(skip_whitespace.o)
                0x000000000003b050                skip_dev_pfx
 .text.tty_baud_to_value
                0x000000000003b07c       0x4c libbb/lib.a(speed_table.o)
                0x000000000003b07c                tty_baud_to_value
 .text.tty_value_to_baud
                0x000000000003b0c8       0x44 libbb/lib.a(speed_table.o)
                0x000000000003b0c8                tty_value_to_baud
 .text.str_tolower
                0x000000000003b10c       0x30 libbb/lib.a(str_tolower.o)
                0x000000000003b10c                str_tolower
 .text.strrstr  0x000000000003b13c       0x4c libbb/lib.a(strrstr.o)
                0x000000000003b13c                strrstr
 .text.get_signum
                0x000000000003b188       0x90 libbb/lib.a(u_signal_names.o)
                0x000000000003b188                get_signum
 .text.get_signame
                0x000000000003b218       0x38 libbb/lib.a(u_signal_names.o)
                0x000000000003b218                get_signame
 .text.print_signames
                0x000000000003b250       0x40 libbb/lib.a(u_signal_names.o)
                0x000000000003b250                print_signames
 .text.recv_from_to
                0x000000000003b290      0x108 libbb/lib.a(udp_io.o)
                0x000000000003b290                recv_from_to
 .text.update_passwd
                0x000000000003b398      0x2e0 libbb/lib.a(update_passwd.o)
                0x000000000003b398                update_passwd
 .text.bb_daemonize_or_rexec
                0x000000000003b678       0xfc libbb/lib.a(vfork_daemon_rexec.o)
                0x000000000003b678                bb_daemonize_or_rexec
 .text.bb_sanitize_stdio
                0x000000000003b774        0x8 libbb/lib.a(vfork_daemon_rexec.o)
                0x000000000003b774                bb_sanitize_stdio
 .text.xfdopen_helper
                0x000000000003b77c       0x44 libbb/lib.a(wfopen.o)
 .text.fopen_or_warn
                0x000000000003b7c0       0x24 libbb/lib.a(wfopen.o)
                0x000000000003b7c0                fopen_or_warn
 .text.fopen_for_read
                0x000000000003b7e4       0x10 libbb/lib.a(wfopen.o)
                0x000000000003b7e4                fopen_for_read
 .text.xfopen_for_read
                0x000000000003b7f4       0x10 libbb/lib.a(wfopen.o)
                0x000000000003b7f4                xfopen_for_read
 .text.xfdopen_for_write
                0x000000000003b804        0xc libbb/lib.a(wfopen.o)
                0x000000000003b804                xfdopen_for_write
 .text.fopen_or_warn_stdin
                0x000000000003b810       0x60 libbb/lib.a(wfopen_input.o)
                0x000000000003b810                fopen_or_warn_stdin
 .text.xfopen_stdin
                0x000000000003b870       0x18 libbb/lib.a(wfopen_input.o)
                0x000000000003b870                xfopen_stdin
 .text.open_or_warn_stdin
                0x000000000003b888       0x40 libbb/lib.a(wfopen_input.o)
                0x000000000003b888                open_or_warn_stdin
 .text.xstrtoull_range_sfx
                0x000000000003b8c8      0x164 libbb/lib.a(xatonum.o)
                0x000000000003b8c8                xstrtoull_range_sfx
 .text.xstrtoull_range
                0x000000000003ba2c       0x24 libbb/lib.a(xatonum.o)
                0x000000000003ba2c                xstrtoull_range
 .text.xatoull_sfx
                0x000000000003ba50       0x2c libbb/lib.a(xatonum.o)
                0x000000000003ba50                xatoull_sfx
 .text.xstrtoul_range_sfx
                0x000000000003ba7c      0x148 libbb/lib.a(xatonum.o)
                0x000000000003ba7c                xstrtoul_range_sfx
 .text.xstrtoul_range
                0x000000000003bbc4       0x14 libbb/lib.a(xatonum.o)
                0x000000000003bbc4                xstrtoul_range
 .text.xatoul_range_sfx
                0x000000000003bbd8       0x24 libbb/lib.a(xatonum.o)
                0x000000000003bbd8                xatoul_range_sfx
 .text.xatoul_range
                0x000000000003bbfc       0x24 libbb/lib.a(xatonum.o)
                0x000000000003bbfc                xatoul_range
 .text.xatoul_sfx
                0x000000000003bc20       0x1c libbb/lib.a(xatonum.o)
                0x000000000003bc20                xatoul_sfx
 .text.xatoul   0x000000000003bc3c        0x8 libbb/lib.a(xatonum.o)
                0x000000000003bc3c                xatoul
 .text.xatoi_u  0x000000000003bc44        0xc libbb/lib.a(xatonum.o)
                0x000000000003bc44                xatoi_u
 .text.xatou16  0x000000000003bc50       0x18 libbb/lib.a(xatonum.o)
                0x000000000003bc50                xatou16
 .text.sockaddr2str
                0x000000000003bc68       0xb0 libbb/lib.a(xconnect.o)
 .text.get_lsa  0x000000000003bd18       0x80 libbb/lib.a(xconnect.o)
 .text.setsockopt_reuseaddr
                0x000000000003bd98       0x28 libbb/lib.a(xconnect.o)
                0x000000000003bd98                setsockopt_reuseaddr
 .text.setsockopt_broadcast
                0x000000000003bdc0       0x28 libbb/lib.a(xconnect.o)
                0x000000000003bdc0                setsockopt_broadcast
 .text.setsockopt_bindtodevice
                0x000000000003bde8       0x5c libbb/lib.a(xconnect.o)
                0x000000000003bde8                setsockopt_bindtodevice
 .text.get_sock_lsa
                0x000000000003be44       0x1c libbb/lib.a(xconnect.o)
                0x000000000003be44                get_sock_lsa
 .text.xconnect
                0x000000000003be60       0x58 libbb/lib.a(xconnect.o)
                0x000000000003be60                xconnect
 .text.bb_lookup_port
                0x000000000003beb8       0x80 libbb/lib.a(xconnect.o)
                0x000000000003beb8                bb_lookup_port
 .text.set_nport
                0x000000000003bf38       0x1c libbb/lib.a(xconnect.o)
                0x000000000003bf38                set_nport
 .text.str2sockaddr
                0x000000000003bf54      0x29c libbb/lib.a(xconnect.o)
 .text.host_and_af2sockaddr
                0x000000000003c1f0        0x8 libbb/lib.a(xconnect.o)
                0x000000000003c1f0                host_and_af2sockaddr
 .text.xhost_and_af2sockaddr
                0x000000000003c1f8        0x8 libbb/lib.a(xconnect.o)
                0x000000000003c1f8                xhost_and_af2sockaddr
 .text.host2sockaddr
                0x000000000003c200        0xc libbb/lib.a(xconnect.o)
                0x000000000003c200                host2sockaddr
 .text.xhost2sockaddr
                0x000000000003c20c        0xc libbb/lib.a(xconnect.o)
                0x000000000003c20c                xhost2sockaddr
 .text.xdotted2sockaddr
                0x000000000003c218        0xc libbb/lib.a(xconnect.o)
                0x000000000003c218                xdotted2sockaddr
 .text.create_and_connect_stream_or_die
                0x000000000003c224       0x48 libbb/lib.a(xconnect.o)
                0x000000000003c224                create_and_connect_stream_or_die
 .text.xconnect_stream
                0x000000000003c26c       0x34 libbb/lib.a(xconnect.o)
                0x000000000003c26c                xconnect_stream
 .text.xmalloc_sockaddr2host_noport
                0x000000000003c2a0        0x8 libbb/lib.a(xconnect.o)
                0x000000000003c2a0                xmalloc_sockaddr2host_noport
 .text.xmalloc_sockaddr2dotted
                0x000000000003c2a8        0x8 libbb/lib.a(xconnect.o)
                0x000000000003c2a8                xmalloc_sockaddr2dotted
 .text.xmalloc_sockaddr2dotted_noport
                0x000000000003c2b0        0x8 libbb/lib.a(xconnect.o)
                0x000000000003c2b0                xmalloc_sockaddr2dotted_noport
 .text.xrealloc_getcwd_or_warn
                0x000000000003c2b8       0x84 libbb/lib.a(xgetcwd.o)
                0x000000000003c2b8                xrealloc_getcwd_or_warn
 .text.xmalloc_readlink
                0x000000000003c33c       0x64 libbb/lib.a(xreadlink.o)
                0x000000000003c33c                xmalloc_readlink
 .text.xmalloc_follow_symlinks
                0x000000000003c3a0       0xc0 libbb/lib.a(xreadlink.o)
                0x000000000003c3a0                xmalloc_follow_symlinks
 .text.xmalloc_readlink_or_warn
                0x000000000003c460       0x60 libbb/lib.a(xreadlink.o)
                0x000000000003c460                xmalloc_readlink_or_warn
 .text.xmalloc_realpath
                0x000000000003c4c0       0x24 libbb/lib.a(xreadlink.o)
                0x000000000003c4c0                xmalloc_realpath
 .text.xrealloc_vector_helper
                0x000000000003c4e4       0x5c libbb/lib.a(xrealloc_vector.o)
                0x000000000003c4e4                xrealloc_vector_helper
 .text.regcomp_or_errmsg
                0x000000000003c540       0x50 libbb/lib.a(xregcomp.o)
                0x000000000003c540                regcomp_or_errmsg
 .text.xregcomp
                0x000000000003c590       0x28 libbb/lib.a(xregcomp.o)
                0x000000000003c590                xregcomp
 .text.bb_ask_confirmation
                0x000000000003c5b8       0x9c libbb/lib.a(ask_confirmation.o)
                0x000000000003c5b8                bb_ask_confirmation
 .text.bb_pstrcmp
                0x000000000003c654        0xc libbb/lib.a(bb_qsort.o)
                0x000000000003c654                bb_pstrcmp
 .text.qsort_string_vector
                0x000000000003c660       0x14 libbb/lib.a(bb_qsort.o)
                0x000000000003c660                qsort_string_vector
 .text.concat_subpath_file
                0x000000000003c674       0x44 libbb/lib.a(concat_subpath_file.o)
                0x000000000003c674                concat_subpath_file
 .text.bb_perror_nomsg
                0x000000000003c6b8        0x8 libbb/lib.a(perror_nomsg.o)
                0x000000000003c6b8                bb_perror_nomsg
 .text          0x000000000003c6c0       0xc8 /opt/toolchains/crosstools-arm-gcc-4.6-linux-3.4-uclibc-0.9.32-binutils-2.21-NPTL/usr/lib/gcc/arm-unknown-linux-uclibcgnueabi/4.6.2/libgcc.a(_udivsi3.o)
                0x000000000003c6c0                __udivsi3
                0x000000000003c6c0                __aeabi_uidiv
                0x000000000003c768                __aeabi_uidivmod
 .text          0x000000000003c788       0xfc /opt/toolchains/crosstools-arm-gcc-4.6-linux-3.4-uclibc-0.9.32-binutils-2.21-NPTL/usr/lib/gcc/arm-unknown-linux-uclibcgnueabi/4.6.2/libgcc.a(_divsi3.o)
                0x000000000003c788                __aeabi_idiv
                0x000000000003c788                __divsi3
                0x000000000003c864                __aeabi_idivmod
 .text          0x000000000003c884       0x1c /opt/toolchains/crosstools-arm-gcc-4.6-linux-3.4-uclibc-0.9.32-binutils-2.21-NPTL/usr/lib/gcc/arm-unknown-linux-uclibcgnueabi/4.6.2/libgcc.a(_lshrdi3.o)
                0x000000000003c884                __aeabi_llsr
                0x000000000003c884                __lshrdi3
 .text          0x000000000003c8a0       0x1c /opt/toolchains/crosstools-arm-gcc-4.6-linux-3.4-uclibc-0.9.32-binutils-2.21-NPTL/usr/lib/gcc/arm-unknown-linux-uclibcgnueabi/4.6.2/libgcc.a(_ashldi3.o)
                0x000000000003c8a0                __ashldi3
                0x000000000003c8a0                __aeabi_llsl
 .text          0x000000000003c8bc      0x3b8 /opt/toolchains/crosstools-arm-gcc-4.6-linux-3.4-uclibc-0.9.32-binutils-2.21-NPTL/usr/lib/gcc/arm-unknown-linux-uclibcgnueabi/4.6.2/libgcc.a(_arm_addsubdf3.o)
                0x000000000003c8bc                __aeabi_drsub
                0x000000000003c8c4                __aeabi_dsub
                0x000000000003c8c4                __subdf3
                0x000000000003c8c8                __adddf3
                0x000000000003c8c8                __aeabi_dadd
                0x000000000003cb74                __aeabi_ui2d
                0x000000000003cb74                __floatunsidf
                0x000000000003cb98                __floatsidf
                0x000000000003cb98                __aeabi_i2d
                0x000000000003cbc0                __extendsfdf2
                0x000000000003cbc0                __aeabi_f2d
                0x000000000003cc00                __aeabi_ul2d
                0x000000000003cc00                __floatundidf
                0x000000000003cc14                __floatdidf
                0x000000000003cc14                __aeabi_l2d
 .text          0x000000000003cc74      0x470 /opt/toolchains/crosstools-arm-gcc-4.6-linux-3.4-uclibc-0.9.32-binutils-2.21-NPTL/usr/lib/gcc/arm-unknown-linux-uclibcgnueabi/4.6.2/libgcc.a(_arm_muldivdf3.o)
                0x000000000003cc74                __aeabi_dmul
                0x000000000003cc74                __muldf3
                0x000000000003cee0                __aeabi_ddiv
                0x000000000003cee0                __divdf3
 .text          0x000000000003d0e4       0x44 /opt/toolchains/crosstools-arm-gcc-4.6-linux-3.4-uclibc-0.9.32-binutils-2.21-NPTL/usr/lib/gcc/arm-unknown-linux-uclibcgnueabi/4.6.2/libgcc.a(_aeabi_ldivmod.o)
                0x000000000003d0e4                __aeabi_ldivmod
 .text          0x000000000003d128       0x3c /opt/toolchains/crosstools-arm-gcc-4.6-linux-3.4-uclibc-0.9.32-binutils-2.21-NPTL/usr/lib/gcc/arm-unknown-linux-uclibcgnueabi/4.6.2/libgcc.a(_aeabi_uldivmod.o)
                0x000000000003d128                __aeabi_uldivmod
 .text          0x000000000003d164       0x10 /opt/toolchains/crosstools-arm-gcc-4.6-linux-3.4-uclibc-0.9.32-binutils-2.21-NPTL/usr/lib/gcc/arm-unknown-linux-uclibcgnueabi/4.6.2/libgcc.a(_dvmd_lnx.o)
                0x000000000003d164                __aeabi_ldiv0
                0x000000000003d164                __aeabi_idiv0
 .text          0x000000000003d174       0x6c /opt/toolchains/crosstools-arm-gcc-4.6-linux-3.4-uclibc-0.9.32-binutils-2.21-NPTL/usr/lib/gcc/arm-unknown-linux-uclibcgnueabi/4.6.2/libgcc.a(_fixunsdfdi.o)
                0x000000000003d174                __aeabi_d2ulz
                0x000000000003d174                __fixunsdfdi
 .text          0x000000000003d1e0       0x78 /opt/toolchains/crosstools-arm-gcc-4.6-linux-3.4-uclibc-0.9.32-binutils-2.21-NPTL/usr/lib/gcc/arm-unknown-linux-uclibcgnueabi/4.6.2/libgcc.a(bpabi.o)
                0x000000000003d1e0                __gnu_ldivmod_helper
                0x000000000003d21c                __gnu_uldivmod_helper
 .text          0x000000000003d258       0x54 /opt/toolchains/crosstools-arm-gcc-4.6-linux-3.4-uclibc-0.9.32-binutils-2.21-NPTL/usr/lib/gcc/arm-unknown-linux-uclibcgnueabi/4.6.2/libgcc.a(_arm_fixunsdfsi.o)
                0x000000000003d258                __fixunsdfsi
                0x000000000003d258                __aeabi_d2uiz
 .text          0x000000000003d2ac      0x464 /opt/toolchains/crosstools-arm-gcc-4.6-linux-3.4-uclibc-0.9.32-binutils-2.21-NPTL/usr/lib/gcc/arm-unknown-linux-uclibcgnueabi/4.6.2/libgcc.a(_divdi3.o)
                0x000000000003d2ac                __divdi3
 .text          0x000000000003d710      0x40c /opt/toolchains/crosstools-arm-gcc-4.6-linux-3.4-uclibc-0.9.32-binutils-2.21-NPTL/usr/lib/gcc/arm-unknown-linux-uclibcgnueabi/4.6.2/libgcc.a(_udivdi3.o)
                0x000000000003d710                __udivdi3
 .text          0x000000000003db1c      0xde0 /opt/toolchains/crosstools-arm-gcc-4.6-linux-3.4-uclibc-0.9.32-binutils-2.21-NPTL/usr/lib/gcc/arm-unknown-linux-uclibcgnueabi/4.6.2/libgcc_eh.a(unwind-arm.o)
                0x000000000003dedc                _Unwind_VRS_Get
                0x000000000003df48                _Unwind_VRS_Set
                0x000000000003e35c                __aeabi_unwind_cpp_pr2
                0x000000000003e364                __aeabi_unwind_cpp_pr1
                0x000000000003e36c                __aeabi_unwind_cpp_pr0
                0x000000000003e374                _Unwind_VRS_Pop
                0x000000000003e6c4                _Unwind_GetCFA
                0x000000000003e6cc                __gnu_Unwind_RaiseException
                0x000000000003e770                __gnu_Unwind_ForcedUnwind
                0x000000000003e78c                __gnu_Unwind_Resume
                0x000000000003e7f8                __gnu_Unwind_Resume_or_Rethrow
                0x000000000003e818                _Unwind_Complete
                0x000000000003e81c                _Unwind_DeleteException
                0x000000000003e83c                __gnu_Unwind_Backtrace
 .text          0x000000000003e8fc      0x1a8 /opt/toolchains/crosstools-arm-gcc-4.6-linux-3.4-uclibc-0.9.32-binutils-2.21-NPTL/usr/lib/gcc/arm-unknown-linux-uclibcgnueabi/4.6.2/libgcc_eh.a(libunwind.o)
                0x000000000003e8fc                __restore_core_regs
                0x000000000003e8fc                restore_core_regs
                0x000000000003e910                __gnu_Unwind_Restore_VFP
                0x000000000003e918                __gnu_Unwind_Save_VFP
                0x000000000003e920                __gnu_Unwind_Restore_VFP_D
                0x000000000003e928                __gnu_Unwind_Save_VFP_D
                0x000000000003e930                __gnu_Unwind_Restore_VFP_D_16_to_31
                0x000000000003e938                __gnu_Unwind_Save_VFP_D_16_to_31
                0x000000000003e940                __gnu_Unwind_Restore_WMMXD
                0x000000000003e984                __gnu_Unwind_Save_WMMXD
                0x000000000003e9c8                __gnu_Unwind_Restore_WMMXC
                0x000000000003e9dc                __gnu_Unwind_Save_WMMXC
                0x000000000003e9f0                ___Unwind_RaiseException
                0x000000000003e9f0                _Unwind_RaiseException
                0x000000000003ea14                ___Unwind_Resume
                0x000000000003ea14                _Unwind_Resume
                0x000000000003ea38                _Unwind_Resume_or_Rethrow
                0x000000000003ea38                ___Unwind_Resume_or_Rethrow
                0x000000000003ea5c                ___Unwind_ForcedUnwind
                0x000000000003ea5c                _Unwind_ForcedUnwind
                0x000000000003ea80                _Unwind_Backtrace
                0x000000000003ea80                ___Unwind_Backtrace
 .text          0x000000000003eaa4      0x4a0 /opt/toolchains/crosstools-arm-gcc-4.6-linux-3.4-uclibc-0.9.32-binutils-2.21-NPTL/usr/lib/gcc/arm-unknown-linux-uclibcgnueabi/4.6.2/libgcc_eh.a(pr-support.o)
                0x000000000003eafc                __gnu_unwind_execute
                0x000000000003ee90                __gnu_unwind_frame
                0x000000000003eed0                _Unwind_GetRegionStart
                0x000000000003eefc                _Unwind_GetLanguageSpecificData
                0x000000000003ef34                _Unwind_GetDataRelBase
                0x000000000003ef3c                _Unwind_GetTextRelBase
 *(SORT(.gnu.warning))
 *(SORT(.glue_7t))
 .glue_7t       0x0000000000000000        0x0 linker stubs
 *(SORT(.glue_7))
 .glue_7        0x0000000000000000        0x0 linker stubs
 *(SORT(.vfp11_veneer))
 .vfp11_veneer  0x0000000000000000        0x0 linker stubs
 *(SORT(.v4_bx))
 .v4_bx         0x0000000000000000        0x0 linker stubs

.fini           0x000000000003ef44       0x10
 *(SORT(.fini))
 .fini          0x000000000003ef44        0xc /opt/toolchains/crosstools-arm-gcc-4.6-linux-3.4-uclibc-0.9.32-binutils-2.21-NPTL/usr/arm-unknown-linux-uclibcgnueabi/sysroot/usr/lib/crti.o
                0x000000000003ef44                _fini
 .fini          0x000000000003ef50        0x4 /opt/toolchains/crosstools-arm-gcc-4.6-linux-3.4-uclibc-0.9.32-binutils-2.21-NPTL/usr/arm-unknown-linux-uclibcgnueabi/sysroot/usr/lib/crtn.o
                0x000000000003ef54                PROVIDE (__etext, .)
                0x000000000003ef54                PROVIDE (_etext, .)
                0x000000000003ef54                PROVIDE (etext, .)

.rodata         0x000000000003ef54     0x6d2c
 *(SORT(.rodata) SORT(.rodata.*) SORT(.gnu.linkonce.r.*))
 .rodata.const_int_0
                0x000000000003ef54        0x4 libbb/lib.a(messages.o)
                0x000000000003ef54                const_int_0
 .rodata.const_int_1
                0x000000000003ef58        0x4 libbb/lib.a(messages.o)
                0x000000000003ef58                const_int_1
 .rodata.policies
                0x000000000003ef5c       0x30 miscutils/lib.a(chrt.o)
 .rodata.flagvals
                0x000000000003ef8c       0x20 networking/lib.a(route.o)
 .rodata.flags_ipvx
                0x000000000003efac       0x10 networking/lib.a(route.o)
 .rodata.two.9364
                0x000000000003efbc        0x4 networking/lib.a(traceroute.o)
 .rodata.mount_options
                0x000000000003efc0        0xc util-linux/lib.a(mount.o)
 .rodata.dd_suffixes
                0x000000000003efcc       0x58 coreutils/lib.a(dd.o)
 .rodata.opt_flags
                0x000000000003f024       0x68 coreutils/lib.a(ls.o)
 .rodata.modes_cubp
                0x000000000003f08c        0xc coreutils/lib.a(mknod.o)
 .rodata.sfx    0x000000000003f098       0x28 coreutils/lib.a(sleep.o)
 .rodata.stty_suffixes
                0x000000000003f0c0       0x20 coreutils/lib.a(stty.o)
 .rodata.mode_info
                0x000000000003f0e0      0x2a8 coreutils/lib.a(stty.o)
 .rodata.signals.7094
                0x000000000003f388        0xc init/lib.a(halt.o)
 .rodata.magic.7093
                0x000000000003f394        0xc init/lib.a(halt.o)
 .rodata.who_mask.7088
                0x000000000003f3a0       0x10 libbb/lib.a(parse_mode.o)
 .rodata.perm_mask.7089
                0x000000000003f3b0       0x18 libbb/lib.a(parse_mode.o)
 .rodata.applet_nameofs
                0x000000000003f3c8       0x88 libbb/lib.a(appletlib.o)
                0x000000000003f3c8                applet_nameofs
 .rodata.ife_print_flags_mask.7871
                0x000000000003f450       0x1a networking/lib.a(interface.o)
 .rodata.permmask.10110
                0x000000000003f46a       0x12 shell/lib.a(ash.o)
 .rodata.S_I_T  0x000000000003f47c       0x18 shell/lib.a(ash.o)
 .rodata.init_sem
                0x000000000003f494       0x12 sysklogd/lib.a(logread.o)
 .rodata.cpdist
                0x000000000003f4a6       0x3c archival/libunarchive/lib.a(decompress_unzip.o)
 .rodata.cplens
                0x000000000003f4e2       0x3e archival/libunarchive/lib.a(decompress_unzip.o)
 .rodata.mask_bits
                0x000000000003f520       0x22 archival/libunarchive/lib.a(decompress_unzip.o)
 .rodata.speeds
                0x000000000003f542       0x60 libbb/lib.a(speed_table.o)
 .rodata.applet_names
                0x000000000003f5a2      0x191 libbb/lib.a(appletlib.o)
                0x000000000003f5a2                applet_names
 .rodata.str1.1
                0x000000000003f733      0x247 libbb/lib.a(appletlib.o)
                                        0x253 (size before relaxing)
 .rodata.packed_usage
                0x000000000003f97a     0x1815 libbb/lib.a(appletlib.o)
 .rodata.bb_msg_memory_exhausted
                0x000000000004118f       0x11 libbb/lib.a(messages.o)
                0x000000000004118f                bb_msg_memory_exhausted
 .rodata.bb_hexdigits_upcase
                0x00000000000411a0       0x11 libbb/lib.a(messages.o)
                0x00000000000411a0                bb_hexdigits_upcase
 .rodata.bb_banner
                0x00000000000411b1       0x2a libbb/lib.a(messages.o)
                0x00000000000411b1                bb_banner
 .rodata.bb_msg_perm_denied_are_you_root
                0x00000000000411db       0x22 libbb/lib.a(messages.o)
                0x00000000000411db                bb_msg_perm_denied_are_you_root
 .rodata.bb_path_group_file
                0x00000000000411fd        0xb libbb/lib.a(messages.o)
                0x00000000000411fd                bb_path_group_file
 .rodata.bb_msg_can_not_create_raw_socket
                0x0000000000041208       0x18 libbb/lib.a(messages.o)
                0x0000000000041208                bb_msg_can_not_create_raw_socket
 .rodata.bb_msg_you_must_be_root
                0x0000000000041220       0x11 libbb/lib.a(messages.o)
                0x0000000000041220                bb_msg_you_must_be_root
 .rodata.bb_msg_read_error
                0x0000000000041231        0xb libbb/lib.a(messages.o)
                0x0000000000041231                bb_msg_read_error
 .rodata.bb_dev_null
                0x000000000004123c        0xa libbb/lib.a(messages.o)
                0x000000000004123c                bb_dev_null
 .rodata.bb_msg_write_error
                0x0000000000041246        0xc libbb/lib.a(messages.o)
                0x0000000000041246                bb_msg_write_error
 .rodata.bb_path_passwd_file
                0x0000000000041252        0xc libbb/lib.a(messages.o)
                0x0000000000041252                bb_path_passwd_file
 .rodata.bb_msg_requires_arg
                0x000000000004125e       0x18 libbb/lib.a(messages.o)
                0x000000000004125e                bb_msg_requires_arg
 .rodata.bb_msg_standard_output
                0x0000000000041276       0x10 libbb/lib.a(messages.o)
                0x0000000000041276                bb_msg_standard_output
 .rodata.bb_msg_standard_input
                0x0000000000041286        0xf libbb/lib.a(messages.o)
                0x0000000000041286                bb_msg_standard_input
 .rodata.bb_str_default
                0x0000000000041295        0x8 libbb/lib.a(messages.o)
                0x0000000000041295                bb_str_default
 .rodata.bb_msg_invalid_date
                0x000000000004129d       0x12 libbb/lib.a(messages.o)
                0x000000000004129d                bb_msg_invalid_date
 .rodata.bb_default_login_shell
                0x00000000000412af        0x9 libbb/lib.a(messages.o)
                0x00000000000412af                bb_default_login_shell
 .rodata.bb_msg_invalid_arg
                0x00000000000412b8       0x1e libbb/lib.a(messages.o)
                0x00000000000412b8                bb_msg_invalid_arg
 .rodata.bb_PATH_root_path
                0x00000000000412d6       0x23 libbb/lib.a(messages.o)
                0x00000000000412d6                bb_PATH_root_path
 .rodata.str1.1
                0x00000000000412f9        0xe libbb/lib.a(xfuncs.o)
 .rodata.str1.1
                0x0000000000041307      0x149 libbb/lib.a(xfuncs_printf.o)
                                        0x14e (size before relaxing)
 .rodata.str1.1
                0x0000000000000000      0x149 libbb/lib.a(perror_msg.o)
                                          0x3 (size before relaxing)
 .rodata.str1.1
                0x0000000000041450       0x46 libbb/lib.a(time.o)
                                         0x61 (size before relaxing)
 .rodata.str1.1
                0x0000000000000000       0x46 libbb/lib.a(verror_msg.o)
                                          0x6 (size before relaxing)
 .rodata        0x0000000000041496        0xc miscutils/lib.a(chrt.o)
 .rodata.str1.1
                0x00000000000414a2       0xcc miscutils/lib.a(chrt.o)
 .rodata.str1.1
                0x000000000004156e       0xf0 miscutils/lib.a(flash_eraseall.o)
 .rodata.str1.1
                0x000000000004165e      0x10e miscutils/lib.a(sysinfo.o)
                                        0x111 (size before relaxing)
 .rodata        0x000000000004176c        0xc miscutils/lib.a(taskset.o)
 .rodata.str1.1
                0x0000000000041778       0x42 miscutils/lib.a(taskset.o)
 .rodata.str1.1
                0x00000000000417ba       0x31 modutils/lib.a(depmod.o)
                                         0x4e (size before relaxing)
 .rodata.str1.1
                0x00000000000417eb       0x16 modutils/lib.a(insmod.o)
 .rodata.str1.1
                0x0000000000041801       0xd2 modutils/lib.a(modprobe.o)
                                         0xf5 (size before relaxing)
 .rodata.str1.1
                0x00000000000418d3       0xa6 modutils/lib.a(modutils.o)
                                         0xab (size before relaxing)
 .rodata.str1.1
                0x0000000000041979       0x1b modutils/lib.a(rmmod.o)
                                         0x21 (size before relaxing)
 .rodata.__FUNCTION__.8969
                0x0000000000041994        0xc networking/lib.a(ftpgetput.o)
 .rodata.str1.1
                0x00000000000419a0      0x391 networking/lib.a(ftpgetput.o)
                                        0x3a6 (size before relaxing)
 .rodata        0x0000000000041d31        0x7 networking/lib.a(ifconfig.o)
 .rodata.str1.1
                0x0000000000041d38       0xfb networking/lib.a(ifconfig.o)
                                         0xfe (size before relaxing)
 .rodata.ife_print_flags_strs.7870
                0x0000000000041e33       0x6a networking/lib.a(interface.o)
 .rodata.TRext  0x0000000000041e9d        0xf networking/lib.a(interface.o)
 .rodata.str1.1
                0x0000000000041eac      0x5a9 networking/lib.a(interface.o)
                                        0x5c5 (size before relaxing)
 .rodata.str1.1
                0x0000000000042455        0x7 networking/lib.a(nc.o)
                                          0xb (size before relaxing)
 .rodata.__FUNCTION__.9297
                0x000000000004245c       0x11 networking/lib.a(ping.o)
 .rodata.str1.1
                0x000000000004246d      0x44d networking/lib.a(ping.o)
                                        0x45d (size before relaxing)
 .rodata.__FUNCTION__.9158
                0x00000000000428ba       0x11 networking/lib.a(ping.o)
 .rodata.tbl_verb
                0x00000000000428cb       0x15 networking/lib.a(route.o)
 .rodata.str1.1
                0x00000000000428e0      0x236 networking/lib.a(route.o)
                                        0x247 (size before relaxing)
 .rodata.tbl_ipvx
                0x0000000000042b16       0x68 networking/lib.a(route.o)
 .rodata.flagchars
                0x0000000000042b7e        0x9 networking/lib.a(route.o)
 .rodata.tbl_hash_net_host
                0x0000000000042b87        0xf networking/lib.a(route.o)
 .rodata.str1.1
                0x0000000000042b96       0x3a networking/lib.a(sendarp.o)
 .rodata.__FUNCTION__.8955
                0x0000000000042bd0        0x8 networking/lib.a(tftp.o)
 .rodata.errcode_str.9004
                0x0000000000042bd8       0x79 networking/lib.a(tftp.o)
 .rodata.__FUNCTION__.9029
                0x0000000000042c51        0xa networking/lib.a(tftp.o)
 .rodata.str1.1
                0x0000000000042c5b      0x1bd networking/lib.a(tftp.o)
                                        0x2b5 (size before relaxing)
 .rodata.__FUNCTION__.8947
                0x0000000000042e18        0x7 networking/lib.a(tftp.o)
 .rodata.__FUNCTION__.9017
                0x0000000000042e1f       0x10 networking/lib.a(tftpd.o)
 .rodata.__FUNCTION__.9134
                0x0000000000042e2f        0xe networking/lib.a(tftpd.o)
 .rodata.str1.1
                0x0000000000042e3d      0x2fa networking/lib.a(tftpd.o)
                                        0x309 (size before relaxing)
 .rodata.__FUNCTION__.9363
                0x0000000000043137       0x17 networking/lib.a(traceroute.o)
 .rodata.str1.1
                0x000000000004314e      0x218 networking/lib.a(traceroute.o)
                                        0x26c (size before relaxing)
 .rodata.__FUNCTION__.9224
                0x0000000000043366       0x11 networking/lib.a(traceroute.o)
 .rodata.conf_file_name
                0x0000000000043377       0x16 networking/lib.a(vconfig.o)
 .rodata.str1.1
                0x000000000004338d       0x13 networking/lib.a(vconfig.o)
 .rodata.name_types
                0x00000000000433a0       0x4c networking/lib.a(vconfig.o)
 .rodata.cmds   0x00000000000433ec       0x66 networking/lib.a(vconfig.o)
 .rodata.str1.1
                0x0000000000043452      0x21a networking/lib.a(wget.o)
                                        0x26a (size before relaxing)
 .rodata.keywords.7236
                0x000000000004366c       0x33 networking/lib.a(wget.o)
 .rodata.str1.1
                0x000000000004369f       0x7f procps/lib.a(kill.o)
                                         0x83 (size before relaxing)
 .rodata.str1.1
                0x000000000004371e       0x3e procps/lib.a(ps.o)
 .rodata.str1.1
                0x000000000004375c      0x240 procps/lib.a(top.o)
                                        0x25f (size before relaxing)
 .rodata.fmt.7186
                0x000000000004399c       0x2e procps/lib.a(top.o)
 .rodata        0x00000000000439ca       0x68 shell/lib.a(ash.o)
 .rodata.metachars.8734
                0x0000000000043a32        0x4 shell/lib.a(ash.o)
 .rodata.permmode.10109
                0x0000000000043a36        0x3 shell/lib.a(ash.o)
 .rodata.dolatstr
                0x0000000000043a39        0x5 shell/lib.a(ash.o)
 .rodata.CSWTCH.632
                0x0000000000043a3e        0xc shell/lib.a(ash.o)
 .rodata.syntax_index_table.7804
                0x0000000000043a4a       0x1a shell/lib.a(ash.o)
 .rodata.spclchars.8422
                0x0000000000043a64        0xa shell/lib.a(ash.o)
 .rodata.C_escapes.9755
                0x0000000000043a6e       0x12 shell/lib.a(ash.o)
 .rodata.types.9835
                0x0000000000043a80        0x6 shell/lib.a(ash.o)
 .rodata.nodesize
                0x0000000000043a86       0x1b shell/lib.a(ash.o)
 .rodata.xxreadtoken_chars
                0x0000000000043aa1        0x7 shell/lib.a(ash.o)
 .rodata.qchars.8285
                0x0000000000043aa8        0x3 shell/lib.a(ash.o)
 .rodata.CSWTCH.645
                0x0000000000043aab        0x2 shell/lib.a(ash.o)
 .rodata.timescmd_str
                0x0000000000043aad        0x9 shell/lib.a(ash.o)
 .rodata.permuser.10108
                0x0000000000043ab6        0x3 shell/lib.a(ash.o)
 .rodata.xxreadtoken_tokens
                0x0000000000043ab9        0xa shell/lib.a(ash.o)
 .rodata.spec_symbls.7803
                0x0000000000043ac3       0x1b shell/lib.a(ash.o)
 .rodata.str1.1
                0x0000000000043ade      0x709 shell/lib.a(ash.o)
                                        0x770 (size before relaxing)
 .rodata.op_tokens
                0x00000000000441e7       0x8d shell/lib.a(math.o)
 .rodata.str1.1
                0x0000000000000000        0x4 shell/lib.a(math.o)
 .rodata.str1.1
                0x0000000000044274      0x125 shell/lib.a(shell_common.o)
                                        0x15a (size before relaxing)
 .rodata.defifsvar
                0x0000000000044399        0x8 shell/lib.a(shell_common.o)
                0x0000000000044399                defifsvar
 .rodata.ulimit_opt_string
                0x00000000000443a1       0x26 shell/lib.a(shell_common.o)
 .rodata.__FUNCTION__.8856
                0x00000000000443c7        0xb sysklogd/lib.a(klogd.o)
 .rodata.str1.1
                0x00000000000443d2       0x84 sysklogd/lib.a(klogd.o)
                                         0x87 (size before relaxing)
 .rodata.str1.1
                0x0000000000044456       0x82 sysklogd/lib.a(logread.o)
                                         0x84 (size before relaxing)
 .rodata.__FUNCTION__.9118
                0x00000000000444d8        0xd sysklogd/lib.a(syslogd_and_logger.o)
 .rodata.str1.1
                0x00000000000444e5      0x1a2 sysklogd/lib.a(syslogd_and_logger.o)
                                        0x1ff (size before relaxing)
 .rodata.str1.1
                0x0000000000044687       0x14 util-linux/lib.a(dmesg.o)
 .rodata.str1.1
                0x000000000004469b       0x67 util-linux/lib.a(more.o)
                                         0x6a (size before relaxing)
 .rodata.str1.1
                0x0000000000044702       0xbf util-linux/lib.a(mount.o)
                                         0xc4 (size before relaxing)
 .rodata.filesystems.7191
                0x00000000000447c1       0x24 util-linux/lib.a(mount.o)
 .rodata.mount_option_str
                0x00000000000447e5        0xf util-linux/lib.a(mount.o)
 .rodata.str1.1
                0x00000000000447f4       0x61 util-linux/lib.a(umount.o)
                                         0x74 (size before relaxing)
 .rodata.str1.1
                0x0000000000044855       0x81 archival/lib.a(bbunzip.o)
                                         0x87 (size before relaxing)
 .rodata.cpdext
                0x00000000000448d6       0x1e archival/libunarchive/lib.a(decompress_unzip.o)
 .rodata.cplext
                0x00000000000448f4       0x1f archival/libunarchive/lib.a(decompress_unzip.o)
 .rodata.str1.1
                0x0000000000044913       0x41 archival/libunarchive/lib.a(decompress_unzip.o)
                                         0x47 (size before relaxing)
 .rodata.border
                0x0000000000044954       0x13 archival/libunarchive/lib.a(decompress_unzip.o)
 .rodata.str1.1
                0x0000000000000000       0x41 coreutils/lib.a(cat.o)
                                          0x2 (size before relaxing)
 .rodata.str1.1
                0x0000000000044967       0x15 coreutils/lib.a(chmod.o)
                                         0x18 (size before relaxing)
 .rodata.str1.1
                0x000000000004497c       0x2a coreutils/lib.a(cp.o)
 .rodata.isoformats.7112
                0x00000000000449a6       0x1c coreutils/lib.a(date.o)
 .rodata.str1.1
                0x00000000000449c2       0x8f coreutils/lib.a(date.o)
 .rodata.str1.1
                0x0000000000044a51       0x6b coreutils/lib.a(dd.o)
 .rodata.conv_words.7128
                0x0000000000044abc       0x1c coreutils/lib.a(dd.o)
 .rodata.keywords.7127
                0x0000000000044ad8       0x27 coreutils/lib.a(dd.o)
 .rodata.str1.1
                0x0000000000044aff       0xa7 coreutils/lib.a(df.o)
                                         0xaa (size before relaxing)
 .rodata.str1.1
                0x0000000000044ba6       0xcb coreutils/lib.a(expr.o)
                                         0xe2 (size before relaxing)
 .rodata.keywords.7273
                0x0000000000044c71       0x21 coreutils/lib.a(expr.o)
 .rodata.str1.1
                0x0000000000044c92        0x7 coreutils/lib.a(ln.o)
                                         0x11 (size before relaxing)
 .rodata        0x0000000000044c99       0x11 coreutils/lib.a(ls.o)
 .rodata.ls_options
                0x0000000000044caa       0x1a coreutils/lib.a(ls.o)
 .rodata.str1.1
                0x0000000000044cc4       0x6e coreutils/lib.a(ls.o)
                                         0x7f (size before relaxing)
 .rodata.str1.1
                0x0000000000044d32        0x4 coreutils/lib.a(mkdir.o)
                                         0x16 (size before relaxing)
 .rodata.modes_chars
                0x0000000000044d36        0x8 coreutils/lib.a(mknod.o)
 .rodata.str1.1
                0x0000000000044d3e       0x27 coreutils/lib.a(rm.o)
 .rodata        0x0000000000044d65       0x6f coreutils/lib.a(stty.o)
 .rodata.mode_name
                0x0000000000044dd4      0x1f0 coreutils/lib.a(stty.o)
 .rodata.params.7214
                0x0000000000044fc4       0x31 coreutils/lib.a(stty.o)
 .rodata.control_name
                0x0000000000044ff5       0x5b coreutils/lib.a(stty.o)
 .rodata.str1.1
                0x0000000000045050      0x155 coreutils/lib.a(stty.o)
                                        0x15a (size before relaxing)
 .rodata.tcflag_offsets.7158
                0x00000000000451a5        0x4 coreutils/lib.a(stty.o)
 .rodata.control_info
                0x00000000000451a9       0x22 coreutils/lib.a(stty.o)
 .rodata.no_op.7161
                0x00000000000451cb        0x2 coreutils/lib.a(test.o)
 .rodata.ops_texts
                0x00000000000451cd       0x7c coreutils/lib.a(test.o)
 .rodata.str1.1
                0x0000000000045249       0x5f coreutils/lib.a(test.o)
                                         0x74 (size before relaxing)
 .rodata.ops_table
                0x00000000000452a8       0x50 coreutils/lib.a(test.o)
 .rodata.str1.1
                0x00000000000452f8        0xa coreutils/lib.a(tty.o)
 .rodata.str1.1
                0x0000000000000000       0x10 coreutils/libcoreutils/lib.a(cp_mv_stat.o)
 .rodata.str1.1
                0x0000000000000000        0xa coreutils/libcoreutils/lib.a(getopt_mk_fifo_nod.o)
                                          0x3 (size before relaxing)
 .rodata.str1.1
                0x0000000000045302       0x4b findutils/lib.a(grep.o)
                                         0x53 (size before relaxing)
 .rodata.str1.1
                0x000000000004534d       0x16 init/lib.a(halt.o)
 .rodata.actions.7231
                0x0000000000045363       0x40 init/lib.a(init.o)
 .rodata.str1.1
                0x00000000000453a3      0x204 init/lib.a(init.o)
                                        0x254 (size before relaxing)
 .rodata.press_enter.7185
                0x00000000000455a7       0x2f init/lib.a(init.o)
 .rodata.str1.1
                0x00000000000455d6        0x7 libbb/lib.a(concat_path_file.o)
                                          0xa (size before relaxing)
 .rodata.str1.1
                0x00000000000455dd      0x149 libbb/lib.a(copy_file.o)
                                        0x177 (size before relaxing)
 .rodata.str1.1
                0x0000000000045726       0x13 libbb/lib.a(execable.o)
                                         0x18 (size before relaxing)
 .rodata.str1.1
                0x0000000000000000        0x9 libbb/lib.a(find_mount_point.o)
 .rodata.str1.1
                0x0000000000000000        0x2 libbb/lib.a(getopt32.o)
 .rodata.str1.1
                0x0000000000045739       0x28 libbb/lib.a(human_readable.o)
                                         0x2f (size before relaxing)
 .rodata.unit_chars.7089
                0x0000000000045761        0x9 libbb/lib.a(human_readable.o)
 .rodata.str1.1
                0x000000000004576a       0x27 libbb/lib.a(inet_common.o)
                                         0x29 (size before relaxing)
 .rodata.str1.1
                0x0000000000000000        0x3 libbb/lib.a(info_msg.o)
 .rodata.str1.1
                0x0000000000000000        0x1 libbb/lib.a(inode_hash.o)
 .rodata.str1.1
                0x0000000000045791       0x5c libbb/lib.a(lineedit.o)
                                         0x71 (size before relaxing)
 .rodata.forbid
                0x00000000000457ed       0x96 libbb/lib.a(login.o)
 .rodata.str1.1
                0x0000000000045883       0x32 libbb/lib.a(make_directory.o)
 .rodata.type_chars
                0x00000000000458b5       0x10 libbb/lib.a(mode_string.o)
 .rodata.mode_chars
                0x00000000000458c5        0x7 libbb/lib.a(mode_string.o)
 .rodata.bb_path_mtab_file
                0x00000000000458cc        0xd libbb/lib.a(mtab_file.o)
                0x00000000000458cc                bb_path_mtab_file
 .rodata.str1.1
                0x00000000000458d9       0x28 libbb/lib.a(parse_config.o)
 .rodata.who_chars.7090
                0x0000000000045901        0x5 libbb/lib.a(parse_mode.o)
 .rodata.perm_chars.7091
                0x0000000000045906        0x7 libbb/lib.a(parse_mode.o)
 .rodata.charmap.7087
                0x000000000004590d       0x14 libbb/lib.a(process_escape_sequence.o)
 .rodata.str1.1
                0x0000000000045921       0x38 libbb/lib.a(procps.o)
                                         0x4b (size before relaxing)
 .rodata.esccmds.7092
                0x0000000000045959       0x51 libbb/lib.a(read_key.o)
 .rodata.str1.1
                0x00000000000459aa       0x20 libbb/lib.a(read_printf.o)
                                         0x30 (size before relaxing)
 .rodata.str1.1
                0x00000000000459ca       0x86 libbb/lib.a(remove_file.o)
                                         0x96 (size before relaxing)
 .rodata.str1.1
                0x0000000000000000       0x86 libbb/lib.a(safe_gethostname.o)
                                          0x2 (size before relaxing)
 .rodata.str1.1
                0x0000000000045a50        0x5 libbb/lib.a(safe_poll.o)
 .rodata.str1.1
                0x0000000000000000        0x6 libbb/lib.a(skip_whitespace.o)
 .rodata.signals
                0x0000000000045a55       0xe0 libbb/lib.a(u_signal_names.o)
 .rodata.str1.1
                0x0000000000045b35        0x4 libbb/lib.a(u_signal_names.o)
 .rodata.str1.1
                0x0000000000045b39       0x44 libbb/lib.a(update_passwd.o)
                                         0x61 (size before relaxing)
 .rodata.str1.1
                0x0000000000000000        0x2 libbb/lib.a(vfork_daemon_rexec.o)
 .rodata.str1.1
                0x0000000000000000        0x4 libbb/lib.a(wfopen.o)
 .rodata.str1.1
                0x0000000000000000        0x2 libbb/lib.a(wfopen_input.o)
 .rodata.str1.1
                0x0000000000045b7d       0x5e libbb/lib.a(xatonum.o)
 .rodata.str1.1
                0x0000000000045bdb       0x64 libbb/lib.a(xconnect.o)
                                         0x72 (size before relaxing)
 .rodata.str1.1
                0x0000000000045c3f        0x7 libbb/lib.a(xgetcwd.o)
 .rodata.str1.1
                0x0000000000045c46       0x27 libbb/lib.a(xreadlink.o)
 .rodata.str1.1
                0x0000000000045c6d       0x13 libbb/lib.a(xregcomp.o)

.rodata1
 *(SORT(.rodata1))

.ARM.extab      0x0000000000045c80       0x24
 *(SORT(.ARM.extab*) SORT(.gnu.linkonce.armextab.*))
 .ARM.extab     0x0000000000045c80       0x24 /opt/toolchains/crosstools-arm-gcc-4.6-linux-3.4-uclibc-0.9.32-binutils-2.21-NPTL/usr/lib/gcc/arm-unknown-linux-uclibcgnueabi/4.6.2/libgcc_eh.a(unwind-arm.o)
                0x0000000000045ca4                PROVIDE (__exidx_start, .)

.ARM.exidx      0x0000000000045ca4       0xc0
 *(SORT(.ARM.exidx*) SORT(.gnu.linkonce.armexidx.*))
 .ARM.exidx     0x0000000000045ca4       0x10 /opt/toolchains/crosstools-arm-gcc-4.6-linux-3.4-uclibc-0.9.32-binutils-2.21-NPTL/usr/lib/gcc/arm-unknown-linux-uclibcgnueabi/4.6.2/libgcc.a(bpabi.o)
 .ARM.exidx     0x0000000000045cb4        0x8 /opt/toolchains/crosstools-arm-gcc-4.6-linux-3.4-uclibc-0.9.32-binutils-2.21-NPTL/usr/lib/gcc/arm-unknown-linux-uclibcgnueabi/4.6.2/libgcc.a(_divdi3.o)
 .ARM.exidx     0x0000000000045cbc        0x8 /opt/toolchains/crosstools-arm-gcc-4.6-linux-3.4-uclibc-0.9.32-binutils-2.21-NPTL/usr/lib/gcc/arm-unknown-linux-uclibcgnueabi/4.6.2/libgcc.a(_udivdi3.o)
 .ARM.exidx     0x0000000000045cc4       0x88 /opt/toolchains/crosstools-arm-gcc-4.6-linux-3.4-uclibc-0.9.32-binutils-2.21-NPTL/usr/lib/gcc/arm-unknown-linux-uclibcgnueabi/4.6.2/libgcc_eh.a(unwind-arm.o)
                                         0xb0 (size before relaxing)
 .ARM.exidx     0x0000000000045d4c       0x18 /opt/toolchains/crosstools-arm-gcc-4.6-linux-3.4-uclibc-0.9.32-binutils-2.21-NPTL/usr/lib/gcc/arm-unknown-linux-uclibcgnueabi/4.6.2/libgcc_eh.a(pr-support.o)
                                         0x38 (size before relaxing)
                0x0000000000045d64                PROVIDE (__exidx_end, .)

.eh_frame_hdr   0x0000000000045d64        0x0
 *(SORT(.eh_frame_hdr))
 .eh_frame_hdr  0x0000000000000000        0x0 /opt/toolchains/crosstools-arm-gcc-4.6-linux-3.4-uclibc-0.9.32-binutils-2.21-NPTL/usr/arm-unknown-linux-uclibcgnueabi/sysroot/usr/lib/crtn.o

.eh_frame       0x0000000000045d64        0x4
 *(SORT(.eh_frame))
 .eh_frame      0x0000000000045d64        0x0 /opt/toolchains/crosstools-arm-gcc-4.6-linux-3.4-uclibc-0.9.32-binutils-2.21-NPTL/usr/lib/gcc/arm-unknown-linux-uclibcgnueabi/4.6.2/crtbegin.o
 .eh_frame      0x0000000000045d64        0x4 /opt/toolchains/crosstools-arm-gcc-4.6-linux-3.4-uclibc-0.9.32-binutils-2.21-NPTL/usr/lib/gcc/arm-unknown-linux-uclibcgnueabi/4.6.2/crtend.o

.gcc_except_table
 *(SORT(.gcc_except_table) SORT(.gcc_except_table.*))
                0x0000000000045d68                . = (ALIGN (0x8000) - ((0x8000 - .) & 0x7fff))
                0x000000000004dd68                . = DATA_SEGMENT_ALIGN (0x8000, 0x1000)

.eh_frame
 *(SORT(.eh_frame))

.gcc_except_table
 *(SORT(.gcc_except_table) SORT(.gcc_except_table.*))

.tdata
 *(SORT(.tdata) SORT(.tdata.*) SORT(.gnu.linkonce.td.*))

.tbss
 *(SORT(.tbss) SORT(.tbss.*) SORT(.gnu.linkonce.tb.*))
 *(SORT(.tcommon))

.preinit_array  0x000000000004dd68        0x0
                0x000000000004dd68                PROVIDE (__preinit_array_start, .)
 *(SORT(.preinit_array))
                0x000000000004dd68                PROVIDE (__preinit_array_end, .)

.init_array     0x000000000004dd68        0x4
                0x000000000004dd68                PROVIDE (__init_array_start, .)
 *(SORT(.init_array.*))
 *(SORT(.init_array))
 .init_array    0x000000000004dd68        0x4 /opt/toolchains/crosstools-arm-gcc-4.6-linux-3.4-uclibc-0.9.32-binutils-2.21-NPTL/usr/lib/gcc/arm-unknown-linux-uclibcgnueabi/4.6.2/crtbegin.o
                0x000000000004dd6c                PROVIDE (__init_array_end, .)

.fini_array     0x000000000004dd6c        0x4
                0x000000000004dd6c                PROVIDE (__fini_array_start, .)
 *(SORT(.fini_array.*))
 *(SORT(.fini_array))
 .fini_array    0x000000000004dd6c        0x4 /opt/toolchains/crosstools-arm-gcc-4.6-linux-3.4-uclibc-0.9.32-binutils-2.21-NPTL/usr/lib/gcc/arm-unknown-linux-uclibcgnueabi/4.6.2/crtbegin.o
                0x000000000004dd70                PROVIDE (__fini_array_end, .)

.ctors
 *crtbegin.o(SORT(.ctors))
 *crtbegin?.o(SORT(.ctors))
 *(SORT(EXCLUDE_FILE(*crtend?.o *crtend.o) .ctors))
 *(SORT(.ctors.*))
 *(SORT(.ctors))

.dtors
 *crtbegin.o(SORT(.dtors))
 *crtbegin?.o(SORT(.dtors))
 *(SORT(EXCLUDE_FILE(*crtend?.o *crtend.o) .dtors))
 *(SORT(.dtors.*))
 *(SORT(.dtors))

.jcr            0x000000000004dd70        0x4
 *(SORT(.jcr))
 .jcr           0x000000000004dd70        0x0 /opt/toolchains/crosstools-arm-gcc-4.6-linux-3.4-uclibc-0.9.32-binutils-2.21-NPTL/usr/lib/gcc/arm-unknown-linux-uclibcgnueabi/4.6.2/crtbegin.o
 .jcr           0x000000000004dd70        0x4 /opt/toolchains/crosstools-arm-gcc-4.6-linux-3.4-uclibc-0.9.32-binutils-2.21-NPTL/usr/lib/gcc/arm-unknown-linux-uclibcgnueabi/4.6.2/crtend.o

.data.rel.ro    0x000000000004dd74      0x724
 *(SORT(.data.rel.ro.local*) SORT(.gnu.linkonce.d.rel.ro.local.*))
 .data.rel.ro.local.OptArray
                0x000000000004dd74       0x98 networking/lib.a(ifconfig.o)
 .data.rel.ro.local.Arg1Opt
                0x000000000004de0c       0x58 networking/lib.a(ifconfig.o)
 .data.rel.ro.local.if_port_text
                0x000000000004de64       0x20 networking/lib.a(interface.o)
 .data.rel.ro.local.inet6_aftype
                0x000000000004de84       0x2c networking/lib.a(interface.o)
 .data.rel.ro.local.inet_aftype
                0x000000000004deb0       0x2c networking/lib.a(interface.o)
 .data.rel.ro.local.unspec_aftype
                0x000000000004dedc       0x2c networking/lib.a(interface.o)
 .data.rel.ro.local.sit_hwtype
                0x000000000004df08       0x20 networking/lib.a(interface.o)
 .data.rel.ro.local.ss_fmt
                0x000000000004df28       0x10 networking/lib.a(interface.o)
 .data.rel.ro.local.aftypes
                0x000000000004df38       0x10 networking/lib.a(interface.o)
 .data.rel.ro.local.hwtypes
                0x000000000004df48       0x18 networking/lib.a(interface.o)
 .data.rel.ro.local.ether_hwtype
                0x000000000004df60       0x20 networking/lib.a(interface.o)
 .data.rel.ro.local.loop_hwtype
                0x000000000004df80       0x20 networking/lib.a(interface.o)
 .data.rel.ro.local.unspec_hwtype
                0x000000000004dfa0       0x20 networking/lib.a(interface.o)
 .data.rel.ro.local.ppp_hwtype
                0x000000000004dfc0       0x20 networking/lib.a(interface.o)
 .data.rel.ro.local.builtintab
                0x000000000004dfe0      0x100 shell/lib.a(ash.o)
 .data.rel.ro.local.null_bltin.9344
                0x000000000004e0e0        0x8 shell/lib.a(ash.o)
 .data.rel.ro.local.optletters_optnames
                0x000000000004e0e8       0x3c shell/lib.a(ash.o)
 .data.rel.ro.local.tokname_array
                0x000000000004e124       0x74 shell/lib.a(ash.o)
 .data.rel.ro.local.limits_tbl
                0x000000000004e198       0x58 shell/lib.a(shell_common.o)
 .data.rel.ro.local.init_data
                0x000000000004e1f0       0x34 sysklogd/lib.a(syslogd_and_logger.o)
 .data.rel.ro.local.facilitynames
                0x000000000004e224       0xb8 sysklogd/lib.a(syslogd_and_logger.o)
                0x000000000004e224                facilitynames
 .data.rel.ro.local.prioritynames
                0x000000000004e2dc       0x68 sysklogd/lib.a(syslogd_and_logger.o)
                0x000000000004e2dc                prioritynames
 .data.rel.ro.local.bb_argv_dash
                0x000000000004e344        0x8 libbb/lib.a(getopt32.o)
                0x000000000004e344                bb_argv_dash
 *(SORT(.data.rel.ro*) SORT(.gnu.linkonce.d.rel.ro.*))
 .data.rel.ro.applet_main
                0x000000000004e34c      0x110 libbb/lib.a(appletlib.o)
                0x000000000004e34c                applet_main
 .data.rel.ro.varinit_data
                0x000000000004e45c       0x3c shell/lib.a(ash.o)

.dynamic        0x000000000004e498       0xf8
 *(SORT(.dynamic))
 .dynamic       0x000000000004e498       0xf8 libbb/lib.a(xfuncs_printf.o)
                0x000000000004e498                _DYNAMIC
                0x000000000004e590                . = DATA_SEGMENT_RELRO_END (., 0x0)

.got            0x000000000004e590      0x4b0
 *(SORT(.got.plt))
 .got.plt       0x000000000004e590      0x420 libbb/lib.a(xfuncs_printf.o)
                0x000000000004e590                _GLOBAL_OFFSET_TABLE_
 *(SORT(.igot.plt))
 *(SORT(.got))
 .got           0x000000000004e9b0       0x90 libbb/lib.a(xfuncs_printf.o)
 *(SORT(.igot))

.data           0x000000000004ea40       0x29
                0x000000000004ea40                PROVIDE (__data_start, .)
 *(SORT(.data) SORT(.data.*) SORT(.gnu.linkonce.d.*))
 .data.xfunc_error_retval
                0x000000000004ea40        0x4 libbb/lib.a(default_error_retval.o)
                0x000000000004ea40                xfunc_error_retval
 .data.logmode  0x000000000004ea44        0x4 libbb/lib.a(verror_msg.o)
                0x000000000004ea44                logmode
 .data.rel.local.msg_eol
                0x000000000004ea48        0x4 libbb/lib.a(verror_msg.o)
                0x000000000004ea48                msg_eol
 .data.target_endian
                0x000000000004ea4c        0x4 miscutils/lib.a(flash_eraseall.o)
                0x000000000004ea4c                target_endian
 .data.glbPeerFd
                0x000000000004ea50        0x4 networking/lib.a(tftpd.o)
 .data.cpufilter
                0x000000000004ea54        0x4 procps/lib.a(top.o)
                0x000000000004ea54                cpufilter
 .data.rel.local.g_parsefile
                0x000000000004ea58        0x4 shell/lib.a(ash.o)
 .data.builtinloc
                0x000000000004ea5c        0x4 shell/lib.a(ash.o)
 .data.rel.local.log_console
                0x000000000004ea60        0x4 init/lib.a(init.o)
 .data.log_fd.7151
                0x000000000004ea64        0x4 init/lib.a(init.o)
 .data.glbUploadType
                0x000000000004ea68        0x1 networking/lib.a(tftp.o)
                0x000000000004ea68                glbUploadType

.data1
 *(SORT(.data1))
                0x000000000004ea69                _edata = .
                0x000000000004ea69                PROVIDE (edata, .)
                0x000000000004ea69                __bss_start = .
                0x000000000004ea69                __bss_start__ = .

.bss            0x000000000004ea70     0x133c
 *(SORT(.dynbss))
 .dynbss        0x0000000000000000        0x0 libbb/lib.a(xfuncs_printf.o)
 *(SORT(.bss) SORT(.bss.*) SORT(.gnu.linkonce.b.*))
 .bss.bb_common_bufsiz1
                0x000000000004ea70     0x1008 libbb/lib.a(messages.o)
                0x000000000004ea70                bb_common_bufsiz1
 .bss           0x000000000004fa78       0x1c /opt/toolchains/crosstools-arm-gcc-4.6-linux-3.4-uclibc-0.9.32-binutils-2.21-NPTL/usr/lib/gcc/arm-unknown-linux-uclibcgnueabi/4.6.2/crtbegin.o
 .bss.applet_name
                0x000000000004fa94        0x4 libbb/lib.a(appletlib.o)
                0x000000000004fa94                applet_name
 .bss.bb_errno  0x000000000004fa98        0x4 libbb/lib.a(ptr_to_globals.o)
                0x000000000004fa98                bb_errno
 .bss.ptr_to_globals
                0x000000000004fa9c        0x4 libbb/lib.a(ptr_to_globals.o)
                0x000000000004fa9c                ptr_to_globals
 .bss.die_sleep
                0x000000000004faa0        0x4 libbb/lib.a(xfunc_die.o)
                0x000000000004faa0                die_sleep
 .bss.glbStartTime
                0x000000000004faa4        0x4 networking/lib.a(ftpgetput.o)
 .bss.imgifHandle
                0x000000000004faa8        0x4 networking/lib.a(ftpgetput.o)
 .bss.glbUploadSize
                0x000000000004faac        0x4 networking/lib.a(ftpgetput.o)
 .bss.ftpFile.8933
                0x000000000004fab0        0x4 networking/lib.a(ftpgetput.o)
 .bss.glbTotal_size
                0x000000000004fab4        0x4 networking/lib.a(ftpgetput.o)
 .bss.allocSize.8938
                0x000000000004fab8        0x4 networking/lib.a(ftpgetput.o)
 .bss.glbRead_total
                0x000000000004fabc        0x4 networking/lib.a(ftpgetput.o)
 .bss.glbImagePtr
                0x000000000004fac0        0x4 networking/lib.a(ftpgetput.o)
 .bss.msgHandle
                0x000000000004fac4        0x4 networking/lib.a(ftpgetput.o)
 .bss.glbCurPtr
                0x000000000004fac8        0x4 networking/lib.a(ftpgetput.o)
 .bss.buff.7604
                0x000000000004facc        0x4 networking/lib.a(interface.o)
 .bss.int_last  0x000000000004fad0        0x4 networking/lib.a(interface.o)
 .bss.interface_opt_a
                0x000000000004fad4        0x4 networking/lib.a(interface.o)
                0x000000000004fad4                interface_opt_a
 .bss.proc_read.7755
                0x000000000004fad8        0x4 networking/lib.a(interface.o)
 .bss.buff.7614
                0x000000000004fadc        0x4 networking/lib.a(interface.o)
 .bss.buff.7623
                0x000000000004fae0        0x4 networking/lib.a(interface.o)
 .bss.int_list  0x000000000004fae4        0x4 networking/lib.a(interface.o)
 .bss.buff.7785
                0x000000000004fae8        0x4 networking/lib.a(interface.o)
 .bss.msgHandle
                0x000000000004faec        0x4 networking/lib.a(ping.o)
 .bss.requesterId
                0x000000000004faf0        0x4 networking/lib.a(ping.o)
 .bss.allocSize.8953
                0x000000000004faf4        0x4 networking/lib.a(tftp.o)
 .bss.responseMsg.8943
                0x000000000004faf8        0x4 networking/lib.a(tftp.o)
 .bss.xmlCfgLen.8941
                0x000000000004fafc        0x4 networking/lib.a(tftp.o)
 .bss.glbUploadSize
                0x000000000004fb00        0x4 networking/lib.a(tftp.o)
                0x000000000004fb00                glbUploadSize
 .bss.glbImagePtr
                0x000000000004fb04        0x4 networking/lib.a(tftp.o)
                0x000000000004fb04                glbImagePtr
 .bss.msgHandle
                0x000000000004fb08        0x4 networking/lib.a(tftp.o)
 .bss.brcm_tftp
                0x000000000004fb0c        0x4 networking/lib.a(tftp.o)
                0x000000000004fb0c                brcm_tftp
 .bss.glbCurPtr
                0x000000000004fb10        0x4 networking/lib.a(tftp.o)
                0x000000000004fb10                glbCurPtr
 .bss.offset.8942
                0x000000000004fb14        0x4 networking/lib.a(tftp.o)
 .bss.msgHandle
                0x000000000004fb18        0x4 networking/lib.a(tftpd.o)
 .bss.hops      0x000000000004fb1c        0x4 networking/lib.a(traceroute.o)
 .bss.sampleCount
                0x000000000004fb20        0x4 networking/lib.a(traceroute.o)
 .bss.msgHandle
                0x000000000004fb24        0x4 networking/lib.a(traceroute.o)
 .bss.requesterId
                0x000000000004fb28        0x4 networking/lib.a(traceroute.o)
 .bss.tracertMsg
                0x000000000004fb2c       0xd0 networking/lib.a(traceroute.o)
 .bss.totalResponseTime
                0x000000000004fbfc        0x4 networking/lib.a(traceroute.o)
 .bss.altdisplay
                0x000000000004fc00        0x4 procps/lib.a(top.o)
                0x000000000004fc00                altdisplay
 .bss.startlinno
                0x000000000004fc04        0x4 shell/lib.a(ash.o)
 .bss.commandname
                0x000000000004fc08        0x4 shell/lib.a(ash.o)
 .bss.argbackq  0x000000000004fc0c        0x4 shell/lib.a(ash.o)
 .bss.doprompt  0x000000000004fc10        0x4 shell/lib.a(ash.o)
 .bss.argptr    0x000000000004fc14        0x4 shell/lib.a(ash.o)
 .bss.funcblocksize
                0x000000000004fc18        0x4 shell/lib.a(ash.o)
 .bss.funcstring
                0x000000000004fc1c        0x4 shell/lib.a(ash.o)
 .bss.parsebackquote
                0x000000000004fc20        0x4 shell/lib.a(ash.o)
 .bss.needprompt
                0x000000000004fc24        0x4 shell/lib.a(ash.o)
 .bss.wordtext  0x000000000004fc28        0x4 shell/lib.a(ash.o)
 .bss.cmdenviron
                0x000000000004fc2c        0x4 shell/lib.a(ash.o)
 .bss.cmdedit_prompt
                0x000000000004fc30        0x4 shell/lib.a(ash.o)
 .bss.ifslastp  0x000000000004fc34        0x4 shell/lib.a(ash.o)
 .bss.jobless   0x000000000004fc38        0x4 shell/lib.a(ash.o)
 .bss.njobs     0x000000000004fc3c        0x4 shell/lib.a(ash.o)
 .bss.tokpushback
                0x000000000004fc40        0x4 shell/lib.a(ash.o)
 .bss.loopnest  0x000000000004fc44        0x4 shell/lib.a(ash.o)
 .bss.skipcount
                0x000000000004fc48        0x4 shell/lib.a(ash.o)
 .bss.optptr    0x000000000004fc4c        0x4 shell/lib.a(ash.o)
 .bss.basepf    0x000000000004fc50       0x34 shell/lib.a(ash.o)
 .bss.ifsfirst  0x000000000004fc84       0x10 shell/lib.a(ash.o)
 .bss.redirnode
                0x000000000004fc94        0x4 shell/lib.a(ash.o)
 .bss.optionarg
                0x000000000004fc98        0x4 shell/lib.a(ash.o)
 .bss.expdest   0x000000000004fc9c        0x4 shell/lib.a(ash.o)
 .bss.localvars
                0x000000000004fca0        0x4 shell/lib.a(ash.o)
 .bss.curjob    0x000000000004fca4        0x4 shell/lib.a(ash.o)
 .bss.pathopt   0x000000000004fca8        0x4 shell/lib.a(ash.o)
 .bss.did_banner.9225
                0x000000000004fcac        0x4 shell/lib.a(ash.o)
 .bss.heredoclist
                0x000000000004fcb0        0x4 shell/lib.a(ash.o)
 .bss.lasttoken
                0x000000000004fcb4        0x4 shell/lib.a(ash.o)
 .bss.funcnest  0x000000000004fcb8        0x4 shell/lib.a(ash.o)
 .bss.lastcmdentry
                0x000000000004fcbc        0x4 shell/lib.a(ash.o)
 .bss.checkkwd  0x000000000004fcc0        0x4 shell/lib.a(ash.o)
 .bss.heredoc   0x000000000004fcc4        0x4 shell/lib.a(ash.o)
 .bss.atab      0x000000000004fcc8        0x4 shell/lib.a(ash.o)
 .bss.backquotelist
                0x000000000004fccc        0x4 shell/lib.a(ash.o)
 .bss.evalskip  0x000000000004fcd0        0x4 shell/lib.a(ash.o)
 .bss.is_interactive.9224
                0x000000000004fcd4        0x4 shell/lib.a(ash.o)
 .bss.cmdtable  0x000000000004fcd8        0x4 shell/lib.a(ash.o)
 .bss.line_input_state
                0x000000000004fcdc        0x4 shell/lib.a(ash.o)
 .bss.funcblock
                0x000000000004fce0        0x4 shell/lib.a(ash.o)
 .bss.jobtab    0x000000000004fce4        0x4 shell/lib.a(ash.o)
 .bss.quoteflag
                0x000000000004fce8        0x4 shell/lib.a(ash.o)
 .bss.exparg    0x000000000004fcec        0x8 shell/lib.a(ash.o)
 .bss.funcstringsize
                0x000000000004fcf4        0x4 shell/lib.a(ash.o)
 .bss.ash_ptr_to_globals_memstack
                0x000000000004fcf8        0x4 shell/lib.a(ash_ptr_hack.o)
                0x000000000004fcf8                ash_ptr_to_globals_memstack
 .bss.ash_ptr_to_globals_var
                0x000000000004fcfc        0x4 shell/lib.a(ash_ptr_hack.o)
                0x000000000004fcfc                ash_ptr_to_globals_var
 .bss.ash_ptr_to_globals_misc
                0x000000000004fd00        0x4 shell/lib.a(ash_ptr_hack.o)
                0x000000000004fd00                ash_ptr_to_globals_misc
 .bss.prev_chk_var_recursive
                0x000000000004fd04        0x4 shell/lib.a(math.o)
 .bss.test_ptr_to_statics
                0x000000000004fd08        0x4 coreutils/lib.a(test_ptr_hack.o)
                0x000000000004fd08                test_ptr_to_statics
 .bss.init_action_list
                0x000000000004fd0c        0x4 init/lib.a(init.o)
 .bss.option_mask32
                0x000000000004fd10        0x4 libbb/lib.a(getopt32.o)
                0x000000000004fd10                option_mask32
 .bss.opt_complementary
                0x000000000004fd14        0x4 libbb/lib.a(getopt32.o)
                0x000000000004fd14                opt_complementary
 .bss.str.7090  0x000000000004fd18        0x4 libbb/lib.a(human_readable.o)
 .bss.cache.7114
                0x000000000004fd1c        0x4 libbb/lib.a(inet_common.o)
 .bss.ino_dev_hashtable
                0x000000000004fd20        0x4 libbb/lib.a(inode_hash.o)
 .bss.lineedit_ptr_to_statics
                0x000000000004fd24        0x4 libbb/lib.a(lineedit_ptr_hack.o)
                0x000000000004fd24                lineedit_ptr_to_statics
 .bss.saved.7092
                0x000000000004fd28       0x10 libbb/lib.a(printable_string.o)
 .bss.cur_saved.7093
                0x000000000004fd38        0x4 libbb/lib.a(printable_string.o)
 .bss.username  0x000000000004fd3c        0x8 libbb/lib.a(procps.o)
 .bss.groupname
                0x000000000004fd44        0x8 libbb/lib.a(procps.o)
 .bss.bb_got_signal
                0x000000000004fd4c        0x4 libbb/lib.a(signals.o)
                0x000000000004fd4c                bb_got_signal
 .bss.local_buf
                0x000000000004fd50        0xc libbb/lib.a(xfuncs.o)
 .bss.glbImgIfEnabled
                0x000000000004fd5c        0x1 networking/lib.a(ftpgetput.o)
 .bss.connIfName
                0x000000000004fd5d       0x20 networking/lib.a(tftp.o)
                0x000000000004fd5d                connIfName
 .bss.isConfigFile.9126
                0x000000000004fd7d        0x1 networking/lib.a(tftpd.o)
 .bss.connIfName
                0x000000000004fd7e       0x20 networking/lib.a(tftpd.o)
 .bss.back_exitstatus
                0x000000000004fd9e        0x1 shell/lib.a(ash.o)
 .bss.exitstatus
                0x000000000004fd9f        0x1 shell/lib.a(ash.o)
 .bss.buf.7089  0x000000000004fda0        0xc libbb/lib.a(mode_string.o)
 *(SORT(COMMON))
                0x000000000004fdac                . = ALIGN ((. != 0x0)?0x4:0x1)
                0x000000000004fdac                _bss_end__ = .
                0x000000000004fdac                __bss_end__ = .
                0x000000000004fdac                . = ALIGN (0x4)
                0x000000000004fdac                . = ALIGN (0x4)
                0x000000000004fdac                __end__ = .
                0x000000000004fdac                _end = .
                0x000000000004fdac                PROVIDE (end, .)
                0x000000000004fdac                . = DATA_SEGMENT_END (.)

.stab
 *(SORT(.stab))

.stabstr
 *(SORT(.stabstr))

.stab.excl
 *(SORT(.stab.excl))

.stab.exclstr
 *(SORT(.stab.exclstr))

.stab.index
 *(SORT(.stab.index))

.stab.indexstr
 *(SORT(.stab.indexstr))

.ARM.attributes
                0x0000000000000000       0x2b
 .ARM.attributes
                0x0000000000000000       0x1f /opt/toolchains/crosstools-arm-gcc-4.6-linux-3.4-uclibc-0.9.32-binutils-2.21-NPTL/usr/arm-unknown-linux-uclibcgnueabi/sysroot/usr/lib/crt1.o
 .ARM.attributes
                0x000000000000001f       0x1f /opt/toolchains/crosstools-arm-gcc-4.6-linux-3.4-uclibc-0.9.32-binutils-2.21-NPTL/usr/arm-unknown-linux-uclibcgnueabi/sysroot/usr/lib/crti.o
 .ARM.attributes
                0x000000000000003e       0x2f /opt/toolchains/crosstools-arm-gcc-4.6-linux-3.4-uclibc-0.9.32-binutils-2.21-NPTL/usr/lib/gcc/arm-unknown-linux-uclibcgnueabi/4.6.2/crtbegin.o
 .ARM.attributes
                0x000000000000006d       0x2f applets/built-in.o
 .ARM.attributes
                0x000000000000009c       0x2f libbb/lib.a(appletlib.o)
 .ARM.attributes
                0x00000000000000cb       0x2f libbb/lib.a(bb_basename.o)
 .ARM.attributes
                0x00000000000000fa       0x2f libbb/lib.a(default_error_retval.o)
 .ARM.attributes
                0x0000000000000129       0x2f libbb/lib.a(get_last_path_component.o)
 .ARM.attributes
                0x0000000000000158       0x2f libbb/lib.a(last_char_is.o)
 .ARM.attributes
                0x0000000000000187       0x2f libbb/lib.a(messages.o)
 .ARM.attributes
                0x00000000000001b6       0x2f libbb/lib.a(ptr_to_globals.o)
 .ARM.attributes
                0x00000000000001e5       0x2f libbb/lib.a(xfunc_die.o)
 .ARM.attributes
                0x0000000000000214       0x2f libbb/lib.a(xfuncs.o)
 .ARM.attributes
                0x0000000000000243       0x2f libbb/lib.a(xfuncs_printf.o)
 .ARM.attributes
                0x0000000000000272       0x2f libbb/lib.a(copyfd.o)
 .ARM.attributes
                0x00000000000002a1       0x2f libbb/lib.a(full_write.o)
 .ARM.attributes
                0x00000000000002d0       0x2f libbb/lib.a(perror_msg.o)
 .ARM.attributes
                0x00000000000002ff       0x2f libbb/lib.a(read.o)
 .ARM.attributes
                0x000000000000032e       0x2f libbb/lib.a(safe_write.o)
 .ARM.attributes
                0x000000000000035d       0x2f libbb/lib.a(time.o)
 .ARM.attributes
                0x000000000000038c       0x2f libbb/lib.a(verror_msg.o)
 .ARM.attributes
                0x00000000000003bb       0x2f libbb/lib.a(bb_strtonum.o)
 .ARM.attributes
                0x00000000000003ea       0x2f loginutils/lib.a(deluser.o)
 .ARM.attributes
                0x0000000000000419       0x2f miscutils/lib.a(chrt.o)
 .ARM.attributes
                0x0000000000000448       0x2f miscutils/lib.a(flash_eraseall.o)
 .ARM.attributes
                0x0000000000000477       0x2f miscutils/lib.a(sysinfo.o)
 .ARM.attributes
                0x00000000000004a6       0x2f miscutils/lib.a(taskset.o)
 .ARM.attributes
                0x00000000000004d5       0x2f modutils/lib.a(depmod.o)
 .ARM.attributes
                0x0000000000000504       0x2f modutils/lib.a(insmod.o)
 .ARM.attributes
                0x0000000000000533       0x2f modutils/lib.a(modprobe.o)
 .ARM.attributes
                0x0000000000000562       0x2f modutils/lib.a(modutils.o)
 .ARM.attributes
                0x0000000000000591       0x2f modutils/lib.a(rmmod.o)
 .ARM.attributes
                0x00000000000005c0       0x2f networking/lib.a(ftpgetput.o)
 .ARM.attributes
                0x00000000000005ef       0x2f networking/lib.a(ifconfig.o)
 .ARM.attributes
                0x000000000000061e       0x2f networking/lib.a(interface.o)
 .ARM.attributes
                0x000000000000064d       0x2f networking/lib.a(nc.o)
 .ARM.attributes
                0x000000000000067c       0x2f networking/lib.a(ping.o)
 .ARM.attributes
                0x00000000000006ab       0x2f networking/lib.a(route.o)
 .ARM.attributes
                0x00000000000006da       0x2f networking/lib.a(sendarp.o)
 .ARM.attributes
                0x0000000000000709       0x2f networking/lib.a(tftp.o)
 .ARM.attributes
                0x0000000000000738       0x2f networking/lib.a(tftpd.o)
 .ARM.attributes
                0x0000000000000767       0x2f networking/lib.a(traceroute.o)
 .ARM.attributes
                0x0000000000000796       0x2f networking/lib.a(vconfig.o)
 .ARM.attributes
                0x00000000000007c5       0x2f networking/lib.a(wget.o)
 .ARM.attributes
                0x00000000000007f4       0x2f procps/lib.a(kill.o)
 .ARM.attributes
                0x0000000000000823       0x2f procps/lib.a(ps.o)
 .ARM.attributes
                0x0000000000000852       0x2f procps/lib.a(top.o)
 .ARM.attributes
                0x0000000000000881       0x2f shell/lib.a(ash.o)
 .ARM.attributes
                0x00000000000008b0       0x2f shell/lib.a(ash_ptr_hack.o)
 .ARM.attributes
                0x00000000000008df       0x2f shell/lib.a(math.o)
 .ARM.attributes
                0x000000000000090e       0x2f shell/lib.a(shell_common.o)
 .ARM.attributes
                0x000000000000093d       0x2f sysklogd/lib.a(klogd.o)
 .ARM.attributes
                0x000000000000096c       0x2f sysklogd/lib.a(logread.o)
 .ARM.attributes
                0x000000000000099b       0x2f sysklogd/lib.a(syslogd_and_logger.o)
 .ARM.attributes
                0x00000000000009ca       0x2f util-linux/lib.a(dmesg.o)
 .ARM.attributes
                0x00000000000009f9       0x2f util-linux/lib.a(more.o)
 .ARM.attributes
                0x0000000000000a28       0x2f util-linux/lib.a(mount.o)
 .ARM.attributes
                0x0000000000000a57       0x2f util-linux/lib.a(umount.o)
 .ARM.attributes
                0x0000000000000a86       0x2f archival/lib.a(bbunzip.o)
 .ARM.attributes
                0x0000000000000ab5       0x2f archival/libunarchive/lib.a(decompress_bunzip2.o)
 .ARM.attributes
                0x0000000000000ae4       0x2f archival/libunarchive/lib.a(decompress_unzip.o)
 .ARM.attributes
                0x0000000000000b13       0x2f coreutils/lib.a(cat.o)
 .ARM.attributes
                0x0000000000000b42       0x2f coreutils/lib.a(chmod.o)
 .ARM.attributes
                0x0000000000000b71       0x2f coreutils/lib.a(cp.o)
 .ARM.attributes
                0x0000000000000ba0       0x2f coreutils/lib.a(date.o)
 .ARM.attributes
                0x0000000000000bcf       0x2f coreutils/lib.a(dd.o)
 .ARM.attributes
                0x0000000000000bfe       0x2f coreutils/lib.a(df.o)
 .ARM.attributes
                0x0000000000000c2d       0x2f coreutils/lib.a(echo.o)
 .ARM.attributes
                0x0000000000000c5c       0x2f coreutils/lib.a(expr.o)
 .ARM.attributes
                0x0000000000000c8b       0x2f coreutils/lib.a(false.o)
 .ARM.attributes
                0x0000000000000cba       0x2f coreutils/lib.a(ln.o)
 .ARM.attributes
                0x0000000000000ce9       0x2f coreutils/lib.a(ls.o)
 .ARM.attributes
                0x0000000000000d18       0x2f coreutils/lib.a(mkdir.o)
 .ARM.attributes
                0x0000000000000d47       0x2f coreutils/lib.a(mknod.o)
 .ARM.attributes
                0x0000000000000d76       0x2f coreutils/lib.a(pwd.o)
 .ARM.attributes
                0x0000000000000da5       0x2f coreutils/lib.a(rm.o)
 .ARM.attributes
                0x0000000000000dd4       0x2f coreutils/lib.a(sleep.o)
 .ARM.attributes
                0x0000000000000e03       0x2f coreutils/lib.a(stty.o)
 .ARM.attributes
                0x0000000000000e32       0x2f coreutils/lib.a(sync.o)
 .ARM.attributes
                0x0000000000000e61       0x2f coreutils/lib.a(test.o)
 .ARM.attributes
                0x0000000000000e90       0x2f coreutils/lib.a(test_ptr_hack.o)
 .ARM.attributes
                0x0000000000000ebf       0x2f coreutils/lib.a(true.o)
 .ARM.attributes
                0x0000000000000eee       0x2f coreutils/lib.a(tty.o)
 .ARM.attributes
                0x0000000000000f1d       0x2f coreutils/libcoreutils/lib.a(cp_mv_stat.o)
 .ARM.attributes
                0x0000000000000f4c       0x2f coreutils/libcoreutils/lib.a(getopt_mk_fifo_nod.o)
 .ARM.attributes
                0x0000000000000f7b       0x2f findutils/lib.a(grep.o)
 .ARM.attributes
                0x0000000000000faa       0x2f init/lib.a(halt.o)
 .ARM.attributes
                0x0000000000000fd9       0x2f init/lib.a(init.o)
 .ARM.attributes
                0x0000000000001008       0x2f libbb/lib.a(bb_pwd.o)
 .ARM.attributes
                0x0000000000001037       0x2f libbb/lib.a(compare_string_array.o)
 .ARM.attributes
                0x0000000000001066       0x2f libbb/lib.a(concat_path_file.o)
 .ARM.attributes
                0x0000000000001095       0x2f libbb/lib.a(copy_file.o)
 .ARM.attributes
                0x00000000000010c4       0x2f libbb/lib.a(crc32.o)
 .ARM.attributes
                0x00000000000010f3       0x2f libbb/lib.a(create_icmp6_socket.o)
 .ARM.attributes
                0x0000000000001122       0x2f libbb/lib.a(create_icmp_socket.o)
 .ARM.attributes
                0x0000000000001151       0x2f libbb/lib.a(device_open.o)
 .ARM.attributes
                0x0000000000001180       0x2f libbb/lib.a(execable.o)
 .ARM.attributes
                0x00000000000011af       0x2f libbb/lib.a(fclose_nonstdin.o)
 .ARM.attributes
                0x00000000000011de       0x2f libbb/lib.a(fflush_stdout_and_exit.o)
 .ARM.attributes
                0x000000000000120d       0x2f libbb/lib.a(find_mount_point.o)
 .ARM.attributes
                0x000000000000123c       0x2f libbb/lib.a(find_pid_by_name.o)
 .ARM.attributes
                0x000000000000126b       0x2f libbb/lib.a(get_line_from_file.o)
 .ARM.attributes
                0x000000000000129a       0x2f libbb/lib.a(getopt32.o)
 .ARM.attributes
                0x00000000000012c9       0x2f libbb/lib.a(human_readable.o)
 .ARM.attributes
                0x00000000000012f8       0x2f libbb/lib.a(inet_common.o)
 .ARM.attributes
                0x0000000000001327       0x2f libbb/lib.a(info_msg.o)
 .ARM.attributes
                0x0000000000001356       0x2f libbb/lib.a(inode_hash.o)
 .ARM.attributes
                0x0000000000001385       0x2f libbb/lib.a(isdirectory.o)
 .ARM.attributes
                0x00000000000013b4       0x2f libbb/lib.a(lineedit.o)
 .ARM.attributes
                0x00000000000013e3       0x2f libbb/lib.a(lineedit_ptr_hack.o)
 .ARM.attributes
                0x0000000000001412       0x2f libbb/lib.a(llist.o)
 .ARM.attributes
                0x0000000000001441       0x2f libbb/lib.a(login.o)
 .ARM.attributes
                0x0000000000001470       0x2f libbb/lib.a(make_directory.o)
 .ARM.attributes
                0x000000000000149f       0x2f libbb/lib.a(makedev.o)
 .ARM.attributes
                0x00000000000014ce       0x2f libbb/lib.a(match_fstype.o)
 .ARM.attributes
                0x00000000000014fd       0x2f libbb/lib.a(mode_string.o)
 .ARM.attributes
                0x000000000000152c       0x2f libbb/lib.a(mtab_file.o)
 .ARM.attributes
                0x000000000000155b       0x2f libbb/lib.a(parse_config.o)
 .ARM.attributes
                0x000000000000158a       0x2f libbb/lib.a(parse_mode.o)
 .ARM.attributes
                0x00000000000015b9       0x2f libbb/lib.a(perror_nomsg_and_die.o)
 .ARM.attributes
                0x00000000000015e8       0x2f libbb/lib.a(printable_string.o)
 .ARM.attributes
                0x0000000000001617       0x2f libbb/lib.a(process_escape_sequence.o)
 .ARM.attributes
                0x0000000000001646       0x2f libbb/lib.a(procps.o)
 .ARM.attributes
                0x0000000000001675       0x2f libbb/lib.a(read_key.o)
 .ARM.attributes
                0x00000000000016a4       0x2f libbb/lib.a(read_printf.o)
 .ARM.attributes
                0x00000000000016d3       0x2f libbb/lib.a(recursive_action.o)
 .ARM.attributes
                0x0000000000001702       0x2f libbb/lib.a(remove_file.o)
 .ARM.attributes
                0x0000000000001731       0x2f libbb/lib.a(safe_gethostname.o)
 .ARM.attributes
                0x0000000000001760       0x2f libbb/lib.a(safe_poll.o)
 .ARM.attributes
                0x000000000000178f       0x2f libbb/lib.a(safe_strncpy.o)
 .ARM.attributes
                0x00000000000017be       0x2f libbb/lib.a(signals.o)
 .ARM.attributes
                0x00000000000017ed       0x2f libbb/lib.a(simplify_path.o)
 .ARM.attributes
                0x000000000000181c       0x2f libbb/lib.a(skip_whitespace.o)
 .ARM.attributes
                0x000000000000184b       0x2f libbb/lib.a(speed_table.o)
 .ARM.attributes
                0x000000000000187a       0x2f libbb/lib.a(str_tolower.o)
 .ARM.attributes
                0x00000000000018a9       0x2f libbb/lib.a(strrstr.o)
 .ARM.attributes
                0x00000000000018d8       0x2f libbb/lib.a(u_signal_names.o)
 .ARM.attributes
                0x0000000000001907       0x2f libbb/lib.a(udp_io.o)
 .ARM.attributes
                0x0000000000001936       0x2f libbb/lib.a(update_passwd.o)
 .ARM.attributes
                0x0000000000001965       0x2f libbb/lib.a(vfork_daemon_rexec.o)
 .ARM.attributes
                0x0000000000001994       0x2f libbb/lib.a(wfopen.o)
 .ARM.attributes
                0x00000000000019c3       0x2f libbb/lib.a(wfopen_input.o)
 .ARM.attributes
                0x00000000000019f2       0x2f libbb/lib.a(xatonum.o)
 .ARM.attributes
                0x0000000000001a21       0x2f libbb/lib.a(xconnect.o)
 .ARM.attributes
                0x0000000000001a50       0x2f libbb/lib.a(xgetcwd.o)
 .ARM.attributes
                0x0000000000001a7f       0x2f libbb/lib.a(xreadlink.o)
 .ARM.attributes
                0x0000000000001aae       0x2f libbb/lib.a(xrealloc_vector.o)
 .ARM.attributes
                0x0000000000001add       0x2f libbb/lib.a(xregcomp.o)
 .ARM.attributes
                0x0000000000001b0c       0x2f libbb/lib.a(ask_confirmation.o)
 .ARM.attributes
                0x0000000000001b3b       0x2f libbb/lib.a(bb_qsort.o)
 .ARM.attributes
                0x0000000000001b6a       0x2f libbb/lib.a(concat_subpath_file.o)
 .ARM.attributes
                0x0000000000001b99       0x2f libbb/lib.a(perror_nomsg.o)
 .ARM.attributes
                0x0000000000001bc8       0x21 /opt/toolchains/crosstools-arm-gcc-4.6-linux-3.4-uclibc-0.9.32-binutils-2.21-NPTL/usr/lib/gcc/arm-unknown-linux-uclibcgnueabi/4.6.2/libgcc.a(_udivsi3.o)
 .ARM.attributes
                0x0000000000001be9       0x21 /opt/toolchains/crosstools-arm-gcc-4.6-linux-3.4-uclibc-0.9.32-binutils-2.21-NPTL/usr/lib/gcc/arm-unknown-linux-uclibcgnueabi/4.6.2/libgcc.a(_divsi3.o)
 .ARM.attributes
                0x0000000000001c0a       0x21 /opt/toolchains/crosstools-arm-gcc-4.6-linux-3.4-uclibc-0.9.32-binutils-2.21-NPTL/usr/lib/gcc/arm-unknown-linux-uclibcgnueabi/4.6.2/libgcc.a(_lshrdi3.o)
 .ARM.attributes
                0x0000000000001c2b       0x21 /opt/toolchains/crosstools-arm-gcc-4.6-linux-3.4-uclibc-0.9.32-binutils-2.21-NPTL/usr/lib/gcc/arm-unknown-linux-uclibcgnueabi/4.6.2/libgcc.a(_ashldi3.o)
 .ARM.attributes
                0x0000000000001c4c       0x21 /opt/toolchains/crosstools-arm-gcc-4.6-linux-3.4-uclibc-0.9.32-binutils-2.21-NPTL/usr/lib/gcc/arm-unknown-linux-uclibcgnueabi/4.6.2/libgcc.a(_arm_addsubdf3.o)
 .ARM.attributes
                0x0000000000001c6d       0x21 /opt/toolchains/crosstools-arm-gcc-4.6-linux-3.4-uclibc-0.9.32-binutils-2.21-NPTL/usr/lib/gcc/arm-unknown-linux-uclibcgnueabi/4.6.2/libgcc.a(_arm_muldivdf3.o)
 .ARM.attributes
                0x0000000000001c8e       0x21 /opt/toolchains/crosstools-arm-gcc-4.6-linux-3.4-uclibc-0.9.32-binutils-2.21-NPTL/usr/lib/gcc/arm-unknown-linux-uclibcgnueabi/4.6.2/libgcc.a(_aeabi_ldivmod.o)
 .ARM.attributes
                0x0000000000001caf       0x21 /opt/toolchains/crosstools-arm-gcc-4.6-linux-3.4-uclibc-0.9.32-binutils-2.21-NPTL/usr/lib/gcc/arm-unknown-linux-uclibcgnueabi/4.6.2/libgcc.a(_aeabi_uldivmod.o)
 .ARM.attributes
                0x0000000000001cd0       0x21 /opt/toolchains/crosstools-arm-gcc-4.6-linux-3.4-uclibc-0.9.32-binutils-2.21-NPTL/usr/lib/gcc/arm-unknown-linux-uclibcgnueabi/4.6.2/libgcc.a(_dvmd_lnx.o)
 .ARM.attributes
                0x0000000000001cf1       0x2f /opt/toolchains/crosstools-arm-gcc-4.6-linux-3.4-uclibc-0.9.32-binutils-2.21-NPTL/usr/lib/gcc/arm-unknown-linux-uclibcgnueabi/4.6.2/libgcc.a(_fixunsdfdi.o)
 .ARM.attributes
                0x0000000000001d20       0x2f /opt/toolchains/crosstools-arm-gcc-4.6-linux-3.4-uclibc-0.9.32-binutils-2.21-NPTL/usr/lib/gcc/arm-unknown-linux-uclibcgnueabi/4.6.2/libgcc.a(bpabi.o)
 .ARM.attributes
                0x0000000000001d4f       0x21 /opt/toolchains/crosstools-arm-gcc-4.6-linux-3.4-uclibc-0.9.32-binutils-2.21-NPTL/usr/lib/gcc/arm-unknown-linux-uclibcgnueabi/4.6.2/libgcc.a(_arm_fixunsdfsi.o)
 .ARM.attributes
                0x0000000000001d70       0x2f /opt/toolchains/crosstools-arm-gcc-4.6-linux-3.4-uclibc-0.9.32-binutils-2.21-NPTL/usr/lib/gcc/arm-unknown-linux-uclibcgnueabi/4.6.2/libgcc.a(_divdi3.o)
 .ARM.attributes
                0x0000000000001d9f       0x2f /opt/toolchains/crosstools-arm-gcc-4.6-linux-3.4-uclibc-0.9.32-binutils-2.21-NPTL/usr/lib/gcc/arm-unknown-linux-uclibcgnueabi/4.6.2/libgcc.a(_udivdi3.o)
 .ARM.attributes
                0x0000000000001dce       0x2f /opt/toolchains/crosstools-arm-gcc-4.6-linux-3.4-uclibc-0.9.32-binutils-2.21-NPTL/usr/lib/gcc/arm-unknown-linux-uclibcgnueabi/4.6.2/libgcc_eh.a(unwind-arm.o)
 .ARM.attributes
                0x0000000000001dfd       0x21 /opt/toolchains/crosstools-arm-gcc-4.6-linux-3.4-uclibc-0.9.32-binutils-2.21-NPTL/usr/lib/gcc/arm-unknown-linux-uclibcgnueabi/4.6.2/libgcc_eh.a(libunwind.o)
 .ARM.attributes
                0x0000000000001e1e       0x2f /opt/toolchains/crosstools-arm-gcc-4.6-linux-3.4-uclibc-0.9.32-binutils-2.21-NPTL/usr/lib/gcc/arm-unknown-linux-uclibcgnueabi/4.6.2/libgcc_eh.a(pr-support.o)
 .ARM.attributes
                0x0000000000001e4d       0x2f /opt/toolchains/crosstools-arm-gcc-4.6-linux-3.4-uclibc-0.9.32-binutils-2.21-NPTL/usr/lib/gcc/arm-unknown-linux-uclibcgnueabi/4.6.2/crtend.o
 .ARM.attributes
                0x0000000000001e7c       0x1f /opt/toolchains/crosstools-arm-gcc-4.6-linux-3.4-uclibc-0.9.32-binutils-2.21-NPTL/usr/arm-unknown-linux-uclibcgnueabi/sysroot/usr/lib/crtn.o

.comment        0x0000000000000000       0x4d
 *(SORT(.comment))
 .comment       0x0000000000000000       0x2e /opt/toolchains/crosstools-arm-gcc-4.6-linux-3.4-uclibc-0.9.32-binutils-2.21-NPTL/usr/arm-unknown-linux-uclibcgnueabi/sysroot/usr/lib/crti.o
                                         0x2f (size before relaxing)
 .comment       0x000000000000002e       0x1f /opt/toolchains/crosstools-arm-gcc-4.6-linux-3.4-uclibc-0.9.32-binutils-2.21-NPTL/usr/lib/gcc/arm-unknown-linux-uclibcgnueabi/4.6.2/crtbegin.o
                                         0x20 (size before relaxing)
 .comment       0x0000000000000000       0x20 applets/built-in.o
 .comment       0x0000000000000000       0x20 libbb/lib.a(appletlib.o)
 .comment       0x0000000000000000       0x20 libbb/lib.a(bb_basename.o)
 .comment       0x0000000000000000       0x20 libbb/lib.a(default_error_retval.o)
 .comment       0x0000000000000000       0x20 libbb/lib.a(get_last_path_component.o)
 .comment       0x0000000000000000       0x20 libbb/lib.a(last_char_is.o)
 .comment       0x0000000000000000       0x20 libbb/lib.a(messages.o)
 .comment       0x0000000000000000       0x20 libbb/lib.a(ptr_to_globals.o)
 .comment       0x0000000000000000       0x20 libbb/lib.a(xfunc_die.o)
 .comment       0x0000000000000000       0x20 libbb/lib.a(xfuncs.o)
 .comment       0x0000000000000000       0x20 libbb/lib.a(xfuncs_printf.o)
 .comment       0x0000000000000000       0x20 libbb/lib.a(copyfd.o)
 .comment       0x0000000000000000       0x20 libbb/lib.a(full_write.o)
 .comment       0x0000000000000000       0x20 libbb/lib.a(perror_msg.o)
 .comment       0x0000000000000000       0x20 libbb/lib.a(read.o)
 .comment       0x0000000000000000       0x20 libbb/lib.a(safe_write.o)
 .comment       0x0000000000000000       0x20 libbb/lib.a(time.o)
 .comment       0x0000000000000000       0x20 libbb/lib.a(verror_msg.o)
 .comment       0x0000000000000000       0x20 libbb/lib.a(bb_strtonum.o)
 .comment       0x0000000000000000       0x20 loginutils/lib.a(deluser.o)
 .comment       0x0000000000000000       0x20 miscutils/lib.a(chrt.o)
 .comment       0x0000000000000000       0x20 miscutils/lib.a(flash_eraseall.o)
 .comment       0x0000000000000000       0x20 miscutils/lib.a(sysinfo.o)
 .comment       0x0000000000000000       0x20 miscutils/lib.a(taskset.o)
 .comment       0x0000000000000000       0x20 modutils/lib.a(depmod.o)
 .comment       0x0000000000000000       0x20 modutils/lib.a(insmod.o)
 .comment       0x0000000000000000       0x20 modutils/lib.a(modprobe.o)
 .comment       0x0000000000000000       0x20 modutils/lib.a(modutils.o)
 .comment       0x0000000000000000       0x20 modutils/lib.a(rmmod.o)
 .comment       0x0000000000000000       0x20 networking/lib.a(ftpgetput.o)
 .comment       0x0000000000000000       0x20 networking/lib.a(ifconfig.o)
 .comment       0x0000000000000000       0x20 networking/lib.a(interface.o)
 .comment       0x0000000000000000       0x20 networking/lib.a(nc.o)
 .comment       0x0000000000000000       0x20 networking/lib.a(ping.o)
 .comment       0x0000000000000000       0x20 networking/lib.a(route.o)
 .comment       0x0000000000000000       0x20 networking/lib.a(sendarp.o)
 .comment       0x0000000000000000       0x20 networking/lib.a(tftp.o)
 .comment       0x0000000000000000       0x20 networking/lib.a(tftpd.o)
 .comment       0x0000000000000000       0x20 networking/lib.a(traceroute.o)
 .comment       0x0000000000000000       0x20 networking/lib.a(vconfig.o)
 .comment       0x0000000000000000       0x20 networking/lib.a(wget.o)
 .comment       0x0000000000000000       0x20 procps/lib.a(kill.o)
 .comment       0x0000000000000000       0x20 procps/lib.a(ps.o)
 .comment       0x0000000000000000       0x20 procps/lib.a(top.o)
 .comment       0x0000000000000000       0x20 shell/lib.a(ash.o)
 .comment       0x0000000000000000       0x20 shell/lib.a(ash_ptr_hack.o)
 .comment       0x0000000000000000       0x20 shell/lib.a(math.o)
 .comment       0x0000000000000000       0x20 shell/lib.a(shell_common.o)
 .comment       0x0000000000000000       0x20 sysklogd/lib.a(klogd.o)
 .comment       0x0000000000000000       0x20 sysklogd/lib.a(logread.o)
 .comment       0x0000000000000000       0x20 sysklogd/lib.a(syslogd_and_logger.o)
 .comment       0x0000000000000000       0x20 util-linux/lib.a(dmesg.o)
 .comment       0x0000000000000000       0x20 util-linux/lib.a(more.o)
 .comment       0x0000000000000000       0x20 util-linux/lib.a(mount.o)
 .comment       0x0000000000000000       0x20 util-linux/lib.a(umount.o)
 .comment       0x0000000000000000       0x20 archival/lib.a(bbunzip.o)
 .comment       0x0000000000000000       0x20 archival/libunarchive/lib.a(decompress_bunzip2.o)
 .comment       0x0000000000000000       0x20 archival/libunarchive/lib.a(decompress_unzip.o)
 .comment       0x0000000000000000       0x20 coreutils/lib.a(cat.o)
 .comment       0x0000000000000000       0x20 coreutils/lib.a(chmod.o)
 .comment       0x0000000000000000       0x20 coreutils/lib.a(cp.o)
 .comment       0x0000000000000000       0x20 coreutils/lib.a(date.o)
 .comment       0x0000000000000000       0x20 coreutils/lib.a(dd.o)
 .comment       0x0000000000000000       0x20 coreutils/lib.a(df.o)
 .comment       0x0000000000000000       0x20 coreutils/lib.a(echo.o)
 .comment       0x0000000000000000       0x20 coreutils/lib.a(expr.o)
 .comment       0x0000000000000000       0x20 coreutils/lib.a(false.o)
 .comment       0x0000000000000000       0x20 coreutils/lib.a(ln.o)
 .comment       0x0000000000000000       0x20 coreutils/lib.a(ls.o)
 .comment       0x0000000000000000       0x20 coreutils/lib.a(mkdir.o)
 .comment       0x0000000000000000       0x20 coreutils/lib.a(mknod.o)
 .comment       0x0000000000000000       0x20 coreutils/lib.a(pwd.o)
 .comment       0x0000000000000000       0x20 coreutils/lib.a(rm.o)
 .comment       0x0000000000000000       0x20 coreutils/lib.a(sleep.o)
 .comment       0x0000000000000000       0x20 coreutils/lib.a(stty.o)
 .comment       0x0000000000000000       0x20 coreutils/lib.a(sync.o)
 .comment       0x0000000000000000       0x20 coreutils/lib.a(test.o)
 .comment       0x0000000000000000       0x20 coreutils/lib.a(test_ptr_hack.o)
 .comment       0x0000000000000000       0x20 coreutils/lib.a(true.o)
 .comment       0x0000000000000000       0x20 coreutils/lib.a(tty.o)
 .comment       0x0000000000000000       0x20 coreutils/libcoreutils/lib.a(cp_mv_stat.o)
 .comment       0x0000000000000000       0x20 coreutils/libcoreutils/lib.a(getopt_mk_fifo_nod.o)
 .comment       0x0000000000000000       0x20 findutils/lib.a(grep.o)
 .comment       0x0000000000000000       0x20 init/lib.a(halt.o)
 .comment       0x0000000000000000       0x20 init/lib.a(init.o)
 .comment       0x0000000000000000       0x20 libbb/lib.a(bb_pwd.o)
 .comment       0x0000000000000000       0x20 libbb/lib.a(compare_string_array.o)
 .comment       0x0000000000000000       0x20 libbb/lib.a(concat_path_file.o)
 .comment       0x0000000000000000       0x20 libbb/lib.a(copy_file.o)
 .comment       0x0000000000000000       0x20 libbb/lib.a(crc32.o)
 .comment       0x0000000000000000       0x20 libbb/lib.a(create_icmp6_socket.o)
 .comment       0x0000000000000000       0x20 libbb/lib.a(create_icmp_socket.o)
 .comment       0x0000000000000000       0x20 libbb/lib.a(device_open.o)
 .comment       0x0000000000000000       0x20 libbb/lib.a(execable.o)
 .comment       0x0000000000000000       0x20 libbb/lib.a(fclose_nonstdin.o)
 .comment       0x0000000000000000       0x20 libbb/lib.a(fflush_stdout_and_exit.o)
 .comment       0x0000000000000000       0x20 libbb/lib.a(find_mount_point.o)
 .comment       0x0000000000000000       0x20 libbb/lib.a(find_pid_by_name.o)
 .comment       0x0000000000000000       0x20 libbb/lib.a(get_line_from_file.o)
 .comment       0x0000000000000000       0x20 libbb/lib.a(getopt32.o)
 .comment       0x0000000000000000       0x20 libbb/lib.a(human_readable.o)
 .comment       0x0000000000000000       0x20 libbb/lib.a(inet_common.o)
 .comment       0x0000000000000000       0x20 libbb/lib.a(info_msg.o)
 .comment       0x0000000000000000       0x20 libbb/lib.a(inode_hash.o)
 .comment       0x0000000000000000       0x20 libbb/lib.a(isdirectory.o)
 .comment       0x0000000000000000       0x20 libbb/lib.a(lineedit.o)
 .comment       0x0000000000000000       0x20 libbb/lib.a(lineedit_ptr_hack.o)
 .comment       0x0000000000000000       0x20 libbb/lib.a(llist.o)
 .comment       0x0000000000000000       0x20 libbb/lib.a(login.o)
 .comment       0x0000000000000000       0x20 libbb/lib.a(make_directory.o)
 .comment       0x0000000000000000       0x20 libbb/lib.a(makedev.o)
 .comment       0x0000000000000000       0x20 libbb/lib.a(match_fstype.o)
 .comment       0x0000000000000000       0x20 libbb/lib.a(mode_string.o)
 .comment       0x0000000000000000       0x20 libbb/lib.a(mtab_file.o)
 .comment       0x0000000000000000       0x20 libbb/lib.a(parse_config.o)
 .comment       0x0000000000000000       0x20 libbb/lib.a(parse_mode.o)
 .comment       0x0000000000000000       0x20 libbb/lib.a(perror_nomsg_and_die.o)
 .comment       0x0000000000000000       0x20 libbb/lib.a(printable_string.o)
 .comment       0x0000000000000000       0x20 libbb/lib.a(process_escape_sequence.o)
 .comment       0x0000000000000000       0x20 libbb/lib.a(procps.o)
 .comment       0x0000000000000000       0x20 libbb/lib.a(read_key.o)
 .comment       0x0000000000000000       0x20 libbb/lib.a(read_printf.o)
 .comment       0x0000000000000000       0x20 libbb/lib.a(recursive_action.o)
 .comment       0x0000000000000000       0x20 libbb/lib.a(remove_file.o)
 .comment       0x0000000000000000       0x20 libbb/lib.a(safe_gethostname.o)
 .comment       0x0000000000000000       0x20 libbb/lib.a(safe_poll.o)
 .comment       0x0000000000000000       0x20 libbb/lib.a(safe_strncpy.o)
 .comment       0x0000000000000000       0x20 libbb/lib.a(signals.o)
 .comment       0x0000000000000000       0x20 libbb/lib.a(simplify_path.o)
 .comment       0x0000000000000000       0x20 libbb/lib.a(skip_whitespace.o)
 .comment       0x0000000000000000       0x20 libbb/lib.a(speed_table.o)
 .comment       0x0000000000000000       0x20 libbb/lib.a(str_tolower.o)
 .comment       0x0000000000000000       0x20 libbb/lib.a(strrstr.o)
 .comment       0x0000000000000000       0x20 libbb/lib.a(u_signal_names.o)
 .comment       0x0000000000000000       0x20 libbb/lib.a(udp_io.o)
 .comment       0x0000000000000000       0x20 libbb/lib.a(update_passwd.o)
 .comment       0x0000000000000000       0x20 libbb/lib.a(vfork_daemon_rexec.o)
 .comment       0x0000000000000000       0x20 libbb/lib.a(wfopen.o)
 .comment       0x0000000000000000       0x20 libbb/lib.a(wfopen_input.o)
 .comment       0x0000000000000000       0x20 libbb/lib.a(xatonum.o)
 .comment       0x0000000000000000       0x20 libbb/lib.a(xconnect.o)
 .comment       0x0000000000000000       0x20 libbb/lib.a(xgetcwd.o)
 .comment       0x0000000000000000       0x20 libbb/lib.a(xreadlink.o)
 .comment       0x0000000000000000       0x20 libbb/lib.a(xrealloc_vector.o)
 .comment       0x0000000000000000       0x20 libbb/lib.a(xregcomp.o)
 .comment       0x0000000000000000       0x20 libbb/lib.a(ask_confirmation.o)
 .comment       0x0000000000000000       0x20 libbb/lib.a(bb_qsort.o)
 .comment       0x0000000000000000       0x20 libbb/lib.a(concat_subpath_file.o)
 .comment       0x0000000000000000       0x20 libbb/lib.a(perror_nomsg.o)
 .comment       0x0000000000000000       0x20 /opt/toolchains/crosstools-arm-gcc-4.6-linux-3.4-uclibc-0.9.32-binutils-2.21-NPTL/usr/lib/gcc/arm-unknown-linux-uclibcgnueabi/4.6.2/libgcc.a(_fixunsdfdi.o)
 .comment       0x0000000000000000       0x20 /opt/toolchains/crosstools-arm-gcc-4.6-linux-3.4-uclibc-0.9.32-binutils-2.21-NPTL/usr/lib/gcc/arm-unknown-linux-uclibcgnueabi/4.6.2/libgcc.a(bpabi.o)
 .comment       0x0000000000000000       0x20 /opt/toolchains/crosstools-arm-gcc-4.6-linux-3.4-uclibc-0.9.32-binutils-2.21-NPTL/usr/lib/gcc/arm-unknown-linux-uclibcgnueabi/4.6.2/libgcc.a(_divdi3.o)
 .comment       0x0000000000000000       0x20 /opt/toolchains/crosstools-arm-gcc-4.6-linux-3.4-uclibc-0.9.32-binutils-2.21-NPTL/usr/lib/gcc/arm-unknown-linux-uclibcgnueabi/4.6.2/libgcc.a(_udivdi3.o)
 .comment       0x0000000000000000       0x20 /opt/toolchains/crosstools-arm-gcc-4.6-linux-3.4-uclibc-0.9.32-binutils-2.21-NPTL/usr/lib/gcc/arm-unknown-linux-uclibcgnueabi/4.6.2/libgcc_eh.a(unwind-arm.o)
 .comment       0x0000000000000000       0x20 /opt/toolchains/crosstools-arm-gcc-4.6-linux-3.4-uclibc-0.9.32-binutils-2.21-NPTL/usr/lib/gcc/arm-unknown-linux-uclibcgnueabi/4.6.2/libgcc_eh.a(pr-support.o)
 .comment       0x0000000000000000       0x20 /opt/toolchains/crosstools-arm-gcc-4.6-linux-3.4-uclibc-0.9.32-binutils-2.21-NPTL/usr/lib/gcc/arm-unknown-linux-uclibcgnueabi/4.6.2/crtend.o
 .comment       0x0000000000000000       0x2f /opt/toolchains/crosstools-arm-gcc-4.6-linux-3.4-uclibc-0.9.32-binutils-2.21-NPTL/usr/arm-unknown-linux-uclibcgnueabi/sysroot/usr/lib/crtn.o

.debug
 *(SORT(.debug))

.line
 *(SORT(.line))

.debug_srcinfo
 *(SORT(.debug_srcinfo) SORT(.zdebug_srcinfo))

.debug_sfnames
 *(SORT(.debug_sfnames) SORT(.zdebug_sfnames))

.debug_aranges  0x0000000000000000     0x28e8
 *(SORT(.debug_aranges) SORT(.zdebug_aranges))
 .debug_aranges
                0x0000000000000000       0x20 /opt/toolchains/crosstools-arm-gcc-4.6-linux-3.4-uclibc-0.9.32-binutils-2.21-NPTL/usr/lib/gcc/arm-unknown-linux-uclibcgnueabi/4.6.2/libgcc.a(_udivsi3.o)
 .debug_aranges
                0x0000000000000020       0x20 /opt/toolchains/crosstools-arm-gcc-4.6-linux-3.4-uclibc-0.9.32-binutils-2.21-NPTL/usr/lib/gcc/arm-unknown-linux-uclibcgnueabi/4.6.2/libgcc.a(_divsi3.o)
 .debug_aranges
                0x0000000000000040       0x20 /opt/toolchains/crosstools-arm-gcc-4.6-linux-3.4-uclibc-0.9.32-binutils-2.21-NPTL/usr/lib/gcc/arm-unknown-linux-uclibcgnueabi/4.6.2/libgcc.a(_lshrdi3.o)
 .debug_aranges
                0x0000000000000060       0x20 /opt/toolchains/crosstools-arm-gcc-4.6-linux-3.4-uclibc-0.9.32-binutils-2.21-NPTL/usr/lib/gcc/arm-unknown-linux-uclibcgnueabi/4.6.2/libgcc.a(_ashldi3.o)
 .debug_aranges
                0x0000000000000080       0x20 /opt/toolchains/crosstools-arm-gcc-4.6-linux-3.4-uclibc-0.9.32-binutils-2.21-NPTL/usr/lib/gcc/arm-unknown-linux-uclibcgnueabi/4.6.2/libgcc.a(_arm_addsubdf3.o)
 .debug_aranges
                0x00000000000000a0       0x20 /opt/toolchains/crosstools-arm-gcc-4.6-linux-3.4-uclibc-0.9.32-binutils-2.21-NPTL/usr/lib/gcc/arm-unknown-linux-uclibcgnueabi/4.6.2/libgcc.a(_arm_muldivdf3.o)
 .debug_aranges
                0x00000000000000c0       0x20 /opt/toolchains/crosstools-arm-gcc-4.6-linux-3.4-uclibc-0.9.32-binutils-2.21-NPTL/usr/lib/gcc/arm-unknown-linux-uclibcgnueabi/4.6.2/libgcc.a(_aeabi_ldivmod.o)
 .debug_aranges
                0x00000000000000e0       0x20 /opt/toolchains/crosstools-arm-gcc-4.6-linux-3.4-uclibc-0.9.32-binutils-2.21-NPTL/usr/lib/gcc/arm-unknown-linux-uclibcgnueabi/4.6.2/libgcc.a(_aeabi_uldivmod.o)
 .debug_aranges
                0x0000000000000100       0x20 /opt/toolchains/crosstools-arm-gcc-4.6-linux-3.4-uclibc-0.9.32-binutils-2.21-NPTL/usr/lib/gcc/arm-unknown-linux-uclibcgnueabi/4.6.2/libgcc.a(_dvmd_lnx.o)
 .debug_aranges
                0x0000000000000120       0x20 /opt/toolchains/crosstools-arm-gcc-4.6-linux-3.4-uclibc-0.9.32-binutils-2.21-NPTL/usr/lib/gcc/arm-unknown-linux-uclibcgnueabi/4.6.2/libgcc.a(_arm_fixunsdfsi.o)
 .debug_aranges
                0x0000000000000140       0x20 /opt/toolchains/crosstools-arm-gcc-4.6-linux-3.4-uclibc-0.9.32-binutils-2.21-NPTL/usr/lib/gcc/arm-unknown-linux-uclibcgnueabi/4.6.2/libgcc_eh.a(libunwind.o)
 .debug_aranges
                0x0000000000000160       0x50 libbb/lib.a(appletlib.o)
 .debug_aranges
                0x00000000000001b0       0x20 libbb/lib.a(bb_basename.o)
 .debug_aranges
                0x00000000000001d0       0x28 libbb/lib.a(get_last_path_component.o)
 .debug_aranges
                0x00000000000001f8       0x20 libbb/lib.a(last_char_is.o)
 .debug_aranges
                0x0000000000000218       0x20 libbb/lib.a(xfunc_die.o)
 .debug_aranges
                0x0000000000000238       0xb0 libbb/lib.a(xfuncs.o)
 .debug_aranges
                0x00000000000002e8      0x1a8 libbb/lib.a(xfuncs_printf.o)
 .debug_aranges
                0x0000000000000490       0x38 libbb/lib.a(copyfd.o)
 .debug_aranges
                0x00000000000004c8       0x20 libbb/lib.a(full_write.o)
 .debug_aranges
                0x00000000000004e8       0x38 libbb/lib.a(perror_msg.o)
 .debug_aranges
                0x0000000000000520       0x38 libbb/lib.a(read.o)
 .debug_aranges
                0x0000000000000558       0x20 libbb/lib.a(safe_write.o)
 .debug_aranges
                0x0000000000000578       0x48 libbb/lib.a(time.o)
 .debug_aranges
                0x00000000000005c0       0x30 libbb/lib.a(verror_msg.o)
 .debug_aranges
                0x00000000000005f0       0x48 libbb/lib.a(bb_strtonum.o)
 .debug_aranges
                0x0000000000000638       0x28 loginutils/lib.a(deluser.o)
 .debug_aranges
                0x0000000000000660       0x28 miscutils/lib.a(chrt.o)
 .debug_aranges
                0x0000000000000688       0x28 miscutils/lib.a(flash_eraseall.o)
 .debug_aranges
                0x00000000000006b0       0x20 miscutils/lib.a(sysinfo.o)
 .debug_aranges
                0x00000000000006d0       0x20 miscutils/lib.a(taskset.o)
 .debug_aranges
                0x00000000000006f0       0x30 modutils/lib.a(depmod.o)
 .debug_aranges
                0x0000000000000720       0x20 modutils/lib.a(insmod.o)
 .debug_aranges
                0x0000000000000740       0x60 modutils/lib.a(modprobe.o)
 .debug_aranges
                0x00000000000007a0       0x58 modutils/lib.a(modutils.o)
 .debug_aranges
                0x00000000000007f8       0x20 modutils/lib.a(rmmod.o)
 .debug_aranges
                0x0000000000000818       0x38 networking/lib.a(ftpgetput.o)
 .debug_aranges
                0x0000000000000850       0x20 networking/lib.a(ifconfig.o)
 .debug_aranges
                0x0000000000000870       0xb8 networking/lib.a(interface.o)
 .debug_aranges
                0x0000000000000928       0x20 networking/lib.a(nc.o)
 .debug_aranges
                0x0000000000000948       0x68 networking/lib.a(ping.o)
 .debug_aranges
                0x00000000000009b0       0x50 networking/lib.a(route.o)
 .debug_aranges
                0x0000000000000a00       0x28 networking/lib.a(sendarp.o)
 .debug_aranges
                0x0000000000000a28       0x28 networking/lib.a(tftp.o)
 .debug_aranges
                0x0000000000000a50       0x50 networking/lib.a(tftpd.o)
 .debug_aranges
                0x0000000000000aa0       0x40 networking/lib.a(traceroute.o)
 .debug_aranges
                0x0000000000000ae0       0x28 networking/lib.a(vconfig.o)
 .debug_aranges
                0x0000000000000b08       0x58 networking/lib.a(wget.o)
 .debug_aranges
                0x0000000000000b60       0x20 procps/lib.a(kill.o)
 .debug_aranges
                0x0000000000000b80       0x20 procps/lib.a(ps.o)
 .debug_aranges
                0x0000000000000ba0       0x90 procps/lib.a(top.o)
 .debug_aranges
                0x0000000000000c30      0x600 shell/lib.a(ash.o)
 .debug_aranges
                0x0000000000001230       0x30 shell/lib.a(math.o)
 .debug_aranges
                0x0000000000001260       0x38 shell/lib.a(shell_common.o)
 .debug_aranges
                0x0000000000001298       0x28 sysklogd/lib.a(klogd.o)
 .debug_aranges
                0x00000000000012c0       0x38 sysklogd/lib.a(logread.o)
 .debug_aranges
                0x00000000000012f8       0x40 sysklogd/lib.a(syslogd_and_logger.o)
 .debug_aranges
                0x0000000000001338       0x20 util-linux/lib.a(dmesg.o)
 .debug_aranges
                0x0000000000001358       0x28 util-linux/lib.a(more.o)
 .debug_aranges
                0x0000000000001380       0x40 util-linux/lib.a(mount.o)
 .debug_aranges
                0x00000000000013c0       0x20 util-linux/lib.a(umount.o)
 .debug_aranges
                0x00000000000013e0       0x48 archival/lib.a(bbunzip.o)
 .debug_aranges
                0x0000000000001428       0x50 archival/libunarchive/lib.a(decompress_bunzip2.o)
 .debug_aranges
                0x0000000000001478       0x90 archival/libunarchive/lib.a(decompress_unzip.o)
 .debug_aranges
                0x0000000000001508       0x28 coreutils/lib.a(cat.o)
 .debug_aranges
                0x0000000000001530       0x28 coreutils/lib.a(chmod.o)
 .debug_aranges
                0x0000000000001558       0x20 coreutils/lib.a(cp.o)
 .debug_aranges
                0x0000000000001578       0x28 coreutils/lib.a(date.o)
 .debug_aranges
                0x00000000000015a0       0x38 coreutils/lib.a(dd.o)
 .debug_aranges
                0x00000000000015d8       0x28 coreutils/lib.a(df.o)
 .debug_aranges
                0x0000000000001600       0x20 coreutils/lib.a(echo.o)
 .debug_aranges
                0x0000000000001620       0xa0 coreutils/lib.a(expr.o)
 .debug_aranges
                0x00000000000016c0       0x20 coreutils/lib.a(false.o)
 .debug_aranges
                0x00000000000016e0       0x20 coreutils/lib.a(ln.o)
 .debug_aranges
                0x0000000000001700       0x78 coreutils/lib.a(ls.o)
 .debug_aranges
                0x0000000000001778       0x20 coreutils/lib.a(mkdir.o)
 .debug_aranges
                0x0000000000001798       0x20 coreutils/lib.a(mknod.o)
 .debug_aranges
                0x00000000000017b8       0x20 coreutils/lib.a(pwd.o)
 .debug_aranges
                0x00000000000017d8       0x20 coreutils/lib.a(rm.o)
 .debug_aranges
                0x00000000000017f8       0x20 coreutils/lib.a(sleep.o)
 .debug_aranges
                0x0000000000001818       0xa8 coreutils/lib.a(stty.o)
 .debug_aranges
                0x00000000000018c0       0x20 coreutils/lib.a(sync.o)
 .debug_aranges
                0x00000000000018e0       0x58 coreutils/lib.a(test.o)
 .debug_aranges
                0x0000000000001938       0x20 coreutils/lib.a(true.o)
 .debug_aranges
                0x0000000000001958       0x20 coreutils/lib.a(tty.o)
 .debug_aranges
                0x0000000000001978       0x28 coreutils/libcoreutils/lib.a(cp_mv_stat.o)
 .debug_aranges
                0x00000000000019a0       0x20 coreutils/libcoreutils/lib.a(getopt_mk_fifo_nod.o)
 .debug_aranges
                0x00000000000019c0       0x40 findutils/lib.a(grep.o)
 .debug_aranges
                0x0000000000001a00       0x20 init/lib.a(halt.o)
 .debug_aranges
                0x0000000000001a20       0xa0 init/lib.a(init.o)
 .debug_aranges
                0x0000000000001ac0       0x80 libbb/lib.a(bb_pwd.o)
 .debug_aranges
                0x0000000000001b40       0x38 libbb/lib.a(compare_string_array.o)
 .debug_aranges
                0x0000000000001b78       0x20 libbb/lib.a(concat_path_file.o)
 .debug_aranges
                0x0000000000001b98       0x28 libbb/lib.a(copy_file.o)
 .debug_aranges
                0x0000000000001bc0       0x20 libbb/lib.a(crc32.o)
 .debug_aranges
                0x0000000000001be0       0x20 libbb/lib.a(create_icmp6_socket.o)
 .debug_aranges
                0x0000000000001c00       0x20 libbb/lib.a(create_icmp_socket.o)
 .debug_aranges
                0x0000000000001c20       0x20 libbb/lib.a(device_open.o)
 .debug_aranges
                0x0000000000001c40       0x38 libbb/lib.a(execable.o)
 .debug_aranges
                0x0000000000001c78       0x20 libbb/lib.a(fclose_nonstdin.o)
 .debug_aranges
                0x0000000000001c98       0x20 libbb/lib.a(fflush_stdout_and_exit.o)
 .debug_aranges
                0x0000000000001cb8       0x20 libbb/lib.a(find_mount_point.o)
 .debug_aranges
                0x0000000000001cd8       0x28 libbb/lib.a(find_pid_by_name.o)
 .debug_aranges
                0x0000000000001d00       0x38 libbb/lib.a(get_line_from_file.o)
 .debug_aranges
                0x0000000000001d38       0x20 libbb/lib.a(getopt32.o)
 .debug_aranges
                0x0000000000001d58       0x30 libbb/lib.a(human_readable.o)
 .debug_aranges
                0x0000000000001d88       0x38 libbb/lib.a(inet_common.o)
 .debug_aranges
                0x0000000000001dc0       0x20 libbb/lib.a(info_msg.o)
 .debug_aranges
                0x0000000000001de0       0x28 libbb/lib.a(inode_hash.o)
 .debug_aranges
                0x0000000000001e08       0x20 libbb/lib.a(isdirectory.o)
 .debug_aranges
                0x0000000000001e28       0xc8 libbb/lib.a(lineedit.o)
 .debug_aranges
                0x0000000000001ef0       0x50 libbb/lib.a(llist.o)
 .debug_aranges
                0x0000000000001f40       0x30 libbb/lib.a(login.o)
 .debug_aranges
                0x0000000000001f70       0x20 libbb/lib.a(make_directory.o)
 .debug_aranges
                0x0000000000001f90       0x20 libbb/lib.a(makedev.o)
 .debug_aranges
                0x0000000000001fb0       0x20 libbb/lib.a(match_fstype.o)
 .debug_aranges
                0x0000000000001fd0       0x20 libbb/lib.a(mode_string.o)
 .debug_aranges
                0x0000000000001ff0       0x40 libbb/lib.a(parse_config.o)
 .debug_aranges
                0x0000000000002030       0x20 libbb/lib.a(parse_mode.o)
 .debug_aranges
                0x0000000000002050       0x20 libbb/lib.a(perror_nomsg_and_die.o)
 .debug_aranges
                0x0000000000002070       0x20 libbb/lib.a(printable_string.o)
 .debug_aranges
                0x0000000000002090       0x20 libbb/lib.a(process_escape_sequence.o)
 .debug_aranges
                0x00000000000020b0       0x78 libbb/lib.a(procps.o)
 .debug_aranges
                0x0000000000002128       0x28 libbb/lib.a(read_key.o)
 .debug_aranges
                0x0000000000002150       0x60 libbb/lib.a(read_printf.o)
 .debug_aranges
                0x00000000000021b0       0x28 libbb/lib.a(recursive_action.o)
 .debug_aranges
                0x00000000000021d8       0x20 libbb/lib.a(remove_file.o)
 .debug_aranges
                0x00000000000021f8       0x28 libbb/lib.a(safe_gethostname.o)
 .debug_aranges
                0x0000000000002220       0x20 libbb/lib.a(safe_poll.o)
 .debug_aranges
                0x0000000000002240       0x28 libbb/lib.a(safe_strncpy.o)
 .debug_aranges
                0x0000000000002268       0x70 libbb/lib.a(signals.o)
 .debug_aranges
                0x00000000000022d8       0x28 libbb/lib.a(simplify_path.o)
 .debug_aranges
                0x0000000000002300       0x30 libbb/lib.a(skip_whitespace.o)
 .debug_aranges
                0x0000000000002330       0x28 libbb/lib.a(speed_table.o)
 .debug_aranges
                0x0000000000002358       0x20 libbb/lib.a(str_tolower.o)
 .debug_aranges
                0x0000000000002378       0x20 libbb/lib.a(strrstr.o)
 .debug_aranges
                0x0000000000002398       0x30 libbb/lib.a(u_signal_names.o)
 .debug_aranges
                0x00000000000023c8       0x30 libbb/lib.a(udp_io.o)
 .debug_aranges
                0x00000000000023f8       0x20 libbb/lib.a(update_passwd.o)
 .debug_aranges
                0x0000000000002418       0x40 libbb/lib.a(vfork_daemon_rexec.o)
 .debug_aranges
                0x0000000000002458       0x58 libbb/lib.a(wfopen.o)
 .debug_aranges
                0x00000000000024b0       0x38 libbb/lib.a(wfopen_input.o)
 .debug_aranges
                0x00000000000024e8      0x118 libbb/lib.a(xatonum.o)
 .debug_aranges
                0x0000000000002600      0x100 libbb/lib.a(xconnect.o)
 .debug_aranges
                0x0000000000002700       0x20 libbb/lib.a(xgetcwd.o)
 .debug_aranges
                0x0000000000002720       0x38 libbb/lib.a(xreadlink.o)
 .debug_aranges
                0x0000000000002758       0x20 libbb/lib.a(xrealloc_vector.o)
 .debug_aranges
                0x0000000000002778       0x28 libbb/lib.a(xregcomp.o)
 .debug_aranges
                0x00000000000027a0       0x20 libbb/lib.a(ask_confirmation.o)
 .debug_aranges
                0x00000000000027c0       0x28 libbb/lib.a(bb_qsort.o)
 .debug_aranges
                0x00000000000027e8       0x20 libbb/lib.a(concat_subpath_file.o)
 .debug_aranges
                0x0000000000002808       0x20 libbb/lib.a(perror_nomsg.o)
 .debug_aranges
                0x0000000000002828       0x20 /opt/toolchains/crosstools-arm-gcc-4.6-linux-3.4-uclibc-0.9.32-binutils-2.21-NPTL/usr/lib/gcc/arm-unknown-linux-uclibcgnueabi/4.6.2/libgcc.a(_fixunsdfdi.o)
 .debug_aranges
                0x0000000000002848       0x20 /opt/toolchains/crosstools-arm-gcc-4.6-linux-3.4-uclibc-0.9.32-binutils-2.21-NPTL/usr/lib/gcc/arm-unknown-linux-uclibcgnueabi/4.6.2/libgcc.a(bpabi.o)
 .debug_aranges
                0x0000000000002868       0x20 /opt/toolchains/crosstools-arm-gcc-4.6-linux-3.4-uclibc-0.9.32-binutils-2.21-NPTL/usr/lib/gcc/arm-unknown-linux-uclibcgnueabi/4.6.2/libgcc.a(_divdi3.o)
 .debug_aranges
                0x0000000000002888       0x20 /opt/toolchains/crosstools-arm-gcc-4.6-linux-3.4-uclibc-0.9.32-binutils-2.21-NPTL/usr/lib/gcc/arm-unknown-linux-uclibcgnueabi/4.6.2/libgcc.a(_udivdi3.o)
 .debug_aranges
                0x00000000000028a8       0x20 /opt/toolchains/crosstools-arm-gcc-4.6-linux-3.4-uclibc-0.9.32-binutils-2.21-NPTL/usr/lib/gcc/arm-unknown-linux-uclibcgnueabi/4.6.2/libgcc_eh.a(unwind-arm.o)
 .debug_aranges
                0x00000000000028c8       0x20 /opt/toolchains/crosstools-arm-gcc-4.6-linux-3.4-uclibc-0.9.32-binutils-2.21-NPTL/usr/lib/gcc/arm-unknown-linux-uclibcgnueabi/4.6.2/libgcc_eh.a(pr-support.o)

.debug_pubnames
 *(SORT(.debug_pubnames) SORT(.zdebug_pubnames))

.debug_info     0x0000000000000000    0x44299
 *(SORT(.debug_info) SORT(.gnu.linkonce.wi.*) SORT(.zdebug_info))
 .debug_info    0x0000000000000000       0x73 applets/built-in.o
 .debug_info    0x0000000000000073      0x5dd libbb/lib.a(appletlib.o)
 .debug_info    0x0000000000000650       0xb9 libbb/lib.a(bb_basename.o)
 .debug_info    0x0000000000000709       0xe6 libbb/lib.a(default_error_retval.o)
 .debug_info    0x00000000000007ef       0xfc libbb/lib.a(get_last_path_component.o)
 .debug_info    0x00000000000008eb       0xdf libbb/lib.a(last_char_is.o)
 .debug_info    0x00000000000009ca      0x45f libbb/lib.a(messages.o)
 .debug_info    0x0000000000000e29       0x63 libbb/lib.a(ptr_to_globals.o)
 .debug_info    0x0000000000000e8c      0x1e7 libbb/lib.a(xfunc_die.o)
 .debug_info    0x0000000000001073      0x7ac libbb/lib.a(xfuncs.o)
 .debug_info    0x000000000000181f     0x13f6 libbb/lib.a(xfuncs_printf.o)
 .debug_info    0x0000000000002c15      0x2b8 libbb/lib.a(copyfd.o)
 .debug_info    0x0000000000002ecd      0x102 libbb/lib.a(full_write.o)
 .debug_info    0x0000000000002fcf      0x18c libbb/lib.a(perror_msg.o)
 .debug_info    0x000000000000315b      0x229 libbb/lib.a(read.o)
 .debug_info    0x0000000000003384      0x119 libbb/lib.a(safe_write.o)
 .debug_info    0x000000000000349d      0x352 libbb/lib.a(time.o)
 .debug_info    0x00000000000037ef      0x2a7 libbb/lib.a(verror_msg.o)
 .debug_info    0x0000000000003a96      0x3c2 libbb/lib.a(bb_strtonum.o)
 .debug_info    0x0000000000003e58      0x1e9 loginutils/lib.a(deluser.o)
 .debug_info    0x0000000000004041      0x337 miscutils/lib.a(chrt.o)
 .debug_info    0x0000000000004378      0xb61 miscutils/lib.a(flash_eraseall.o)
 .debug_info    0x0000000000004ed9      0x374 miscutils/lib.a(sysinfo.o)
 .debug_info    0x000000000000524d      0x2fe miscutils/lib.a(taskset.o)
 .debug_info    0x000000000000554b      0xa36 modutils/lib.a(depmod.o)
 .debug_info    0x0000000000005f81       0xd8 modutils/lib.a(insmod.o)
 .debug_info    0x0000000000006059      0xe96 modutils/lib.a(modprobe.o)
 .debug_info    0x0000000000006eef      0x361 modutils/lib.a(modutils.o)
 .debug_info    0x0000000000007250      0x159 modutils/lib.a(rmmod.o)
 .debug_info    0x00000000000073a9     0x14dc networking/lib.a(ftpgetput.o)
 .debug_info    0x0000000000008885      0x985 networking/lib.a(ifconfig.o)
 .debug_info    0x000000000000920a     0x1b73 networking/lib.a(interface.o)
 .debug_info    0x000000000000ad7d      0x255 networking/lib.a(nc.o)
 .debug_info    0x000000000000afd2     0x2727 networking/lib.a(ping.o)
 .debug_info    0x000000000000d6f9     0x15de networking/lib.a(route.o)
 .debug_info    0x000000000000ecd7      0x7c7 networking/lib.a(sendarp.o)
 .debug_info    0x000000000000f49e     0x1d45 networking/lib.a(tftp.o)
 .debug_info    0x00000000000111e3     0x12d5 networking/lib.a(tftpd.o)
 .debug_info    0x00000000000124b8     0x2aaf networking/lib.a(traceroute.o)
 .debug_info    0x0000000000014f67      0x34b networking/lib.a(vconfig.o)
 .debug_info    0x00000000000152b2     0x107b networking/lib.a(wget.o)
 .debug_info    0x000000000001632d      0x311 procps/lib.a(kill.o)
 .debug_info    0x000000000001663e      0x431 procps/lib.a(ps.o)
 .debug_info    0x0000000000016a6f     0x1409 procps/lib.a(top.o)
 .debug_info    0x0000000000017e78     0x95f6 shell/lib.a(ash.o)
 .debug_info    0x000000000002146e       0x80 shell/lib.a(ash_ptr_hack.o)
 .debug_info    0x00000000000214ee      0x62f shell/lib.a(math.o)
 .debug_info    0x0000000000021b1d      0xc49 shell/lib.a(shell_common.o)
 .debug_info    0x0000000000022766      0x5b7 sysklogd/lib.a(klogd.o)
 .debug_info    0x0000000000022d1d      0x744 sysklogd/lib.a(logread.o)
 .debug_info    0x0000000000023461     0x182e sysklogd/lib.a(syslogd_and_logger.o)
 .debug_info    0x0000000000024c8f      0x122 util-linux/lib.a(dmesg.o)
 .debug_info    0x0000000000024db1      0x8ca util-linux/lib.a(more.o)
 .debug_info    0x000000000002567b      0xe91 util-linux/lib.a(mount.o)
 .debug_info    0x000000000002650c      0x69c util-linux/lib.a(umount.o)
 .debug_info    0x0000000000026ba8      0x61d archival/lib.a(bbunzip.o)
 .debug_info    0x00000000000271c5      0x825 archival/libunarchive/lib.a(decompress_bunzip2.o)
 .debug_info    0x00000000000279ea     0x1060 archival/libunarchive/lib.a(decompress_unzip.o)
 .debug_info    0x0000000000028a4a      0x197 coreutils/lib.a(cat.o)
 .debug_info    0x0000000000028be1      0x38b coreutils/lib.a(chmod.o)
 .debug_info    0x0000000000028f6c      0x36b coreutils/lib.a(cp.o)
 .debug_info    0x00000000000292d7      0x51a coreutils/lib.a(date.o)
 .debug_info    0x00000000000297f1      0xb17 coreutils/lib.a(dd.o)
 .debug_info    0x000000000002a308      0x70a coreutils/lib.a(df.o)
 .debug_info    0x000000000002aa12      0x4b3 coreutils/lib.a(echo.o)
 .debug_info    0x000000000002aec5      0x8ec coreutils/lib.a(expr.o)
 .debug_info    0x000000000002b7b1       0xb8 coreutils/lib.a(false.o)
 .debug_info    0x000000000002b869      0x371 coreutils/lib.a(ln.o)
 .debug_info    0x000000000002bbda     0x1350 coreutils/lib.a(ls.o)
 .debug_info    0x000000000002cf2a      0x17c coreutils/lib.a(mkdir.o)
 .debug_info    0x000000000002d0a6      0x22f coreutils/lib.a(mknod.o)
 .debug_info    0x000000000002d2d5       0xca coreutils/lib.a(pwd.o)
 .debug_info    0x000000000002d39f      0x185 coreutils/lib.a(rm.o)
 .debug_info    0x000000000002d524      0x213 coreutils/lib.a(sleep.o)
 .debug_info    0x000000000002d737     0x126d coreutils/lib.a(stty.o)
 .debug_info    0x000000000002e9a4       0xbb coreutils/lib.a(sync.o)
 .debug_info    0x000000000002ea5f      0xa2f coreutils/lib.a(test.o)
 .debug_info    0x000000000002f48e       0x44 coreutils/lib.a(test_ptr_hack.o)
 .debug_info    0x000000000002f4d2       0xb8 coreutils/lib.a(true.o)
 .debug_info    0x000000000002f58a      0x102 coreutils/lib.a(tty.o)
 .debug_info    0x000000000002f68c      0x2fb coreutils/libcoreutils/lib.a(cp_mv_stat.o)
 .debug_info    0x000000000002f987       0xed coreutils/libcoreutils/lib.a(getopt_mk_fifo_nod.o)
 .debug_info    0x000000000002fa74      0xe4f findutils/lib.a(grep.o)
 .debug_info    0x00000000000308c3      0x1c9 init/lib.a(halt.o)
 .debug_info    0x0000000000030a8c     0x1295 init/lib.a(init.o)
 .debug_info    0x0000000000031d21      0x4c4 libbb/lib.a(bb_pwd.o)
 .debug_info    0x00000000000321e5      0x1cf libbb/lib.a(compare_string_array.o)
 .debug_info    0x00000000000323b4       0xce libbb/lib.a(concat_path_file.o)
 .debug_info    0x0000000000032482      0x956 libbb/lib.a(copy_file.o)
 .debug_info    0x0000000000032dd8       0xf8 libbb/lib.a(crc32.o)
 .debug_info    0x0000000000032ed0      0x225 libbb/lib.a(create_icmp6_socket.o)
 .debug_info    0x00000000000330f5      0x160 libbb/lib.a(create_icmp_socket.o)
 .debug_info    0x0000000000033255       0xe0 libbb/lib.a(device_open.o)
 .debug_info    0x0000000000033335      0x38a libbb/lib.a(execable.o)
 .debug_info    0x00000000000336bf      0x493 libbb/lib.a(fclose_nonstdin.o)
 .debug_info    0x0000000000033b52      0x4c8 libbb/lib.a(fflush_stdout_and_exit.o)
 .debug_info    0x000000000003401a      0x6da libbb/lib.a(find_mount_point.o)
 .debug_info    0x00000000000346f4      0x452 libbb/lib.a(find_pid_by_name.o)
 .debug_info    0x0000000000034b46      0x570 libbb/lib.a(get_line_from_file.o)
 .debug_info    0x00000000000350b6      0x465 libbb/lib.a(getopt32.o)
 .debug_info    0x000000000003551b      0x247 libbb/lib.a(human_readable.o)
 .debug_info    0x0000000000035762      0x5de libbb/lib.a(inet_common.o)
 .debug_info    0x0000000000035d40      0x155 libbb/lib.a(info_msg.o)
 .debug_info    0x0000000000035e95      0x3c2 libbb/lib.a(inode_hash.o)
 .debug_info    0x0000000000036257      0x296 libbb/lib.a(isdirectory.o)
 .debug_info    0x00000000000364ed     0x1613 libbb/lib.a(lineedit.o)
 .debug_info    0x0000000000037b00       0x44 libbb/lib.a(lineedit_ptr_hack.o)
 .debug_info    0x0000000000037b44      0x2ba libbb/lib.a(llist.o)
 .debug_info    0x0000000000037dfe      0x6ed libbb/lib.a(login.o)
 .debug_info    0x00000000000384eb      0x36b libbb/lib.a(make_directory.o)
 .debug_info    0x0000000000038856       0xc1 libbb/lib.a(makedev.o)
 .debug_info    0x0000000000038917      0x14d libbb/lib.a(match_fstype.o)
 .debug_info    0x0000000000038a64      0x1da libbb/lib.a(mode_string.o)
 .debug_info    0x0000000000038c3e       0xfb libbb/lib.a(mtab_file.o)
 .debug_info    0x0000000000038d39      0x651 libbb/lib.a(parse_config.o)
 .debug_info    0x000000000003938a      0x256 libbb/lib.a(parse_mode.o)
 .debug_info    0x00000000000395e0       0x4c libbb/lib.a(perror_nomsg_and_die.o)
 .debug_info    0x000000000003962c      0x19c libbb/lib.a(printable_string.o)
 .debug_info    0x00000000000397c8      0x13a libbb/lib.a(process_escape_sequence.o)
 .debug_info    0x0000000000039902      0xbdf libbb/lib.a(procps.o)
 .debug_info    0x000000000003a4e1      0x2a1 libbb/lib.a(read_key.o)
 .debug_info    0x000000000003a782      0x5fe libbb/lib.a(read_printf.o)
 .debug_info    0x000000000003ad80      0x466 libbb/lib.a(recursive_action.o)
 .debug_info    0x000000000003b1e6      0x75e libbb/lib.a(remove_file.o)
 .debug_info    0x000000000003b944      0x149 libbb/lib.a(safe_gethostname.o)
 .debug_info    0x000000000003ba8d      0x141 libbb/lib.a(safe_poll.o)
 .debug_info    0x000000000003bbce      0x10c libbb/lib.a(safe_strncpy.o)
 .debug_info    0x000000000003bcda      0x6ab libbb/lib.a(signals.o)
 .debug_info    0x000000000003c385      0x111 libbb/lib.a(simplify_path.o)
 .debug_info    0x000000000003c496      0x105 libbb/lib.a(skip_whitespace.o)
 .debug_info    0x000000000003c59b      0x1b4 libbb/lib.a(speed_table.o)
 .debug_info    0x000000000003c74f      0x103 libbb/lib.a(str_tolower.o)
 .debug_info    0x000000000003c852       0xe4 libbb/lib.a(strrstr.o)
 .debug_info    0x000000000003c936      0x240 libbb/lib.a(u_signal_names.o)
 .debug_info    0x000000000003cb76      0x750 libbb/lib.a(udp_io.o)
 .debug_info    0x000000000003d2c6      0x7b1 libbb/lib.a(update_passwd.o)
 .debug_info    0x000000000003da77      0x220 libbb/lib.a(vfork_daemon_rexec.o)
 .debug_info    0x000000000003dc97      0x5d7 libbb/lib.a(wfopen.o)
 .debug_info    0x000000000003e26e      0x551 libbb/lib.a(wfopen_input.o)
 .debug_info    0x000000000003e7bf      0xb99 libbb/lib.a(xatonum.o)
 .debug_info    0x000000000003f358      0xf9d libbb/lib.a(xconnect.o)
 .debug_info    0x00000000000402f5       0xed libbb/lib.a(xgetcwd.o)
 .debug_info    0x00000000000403e2      0x242 libbb/lib.a(xreadlink.o)
 .debug_info    0x0000000000040624       0xd8 libbb/lib.a(xrealloc_vector.o)
 .debug_info    0x00000000000406fc      0x27f libbb/lib.a(xregcomp.o)
 .debug_info    0x000000000004097b      0x4a4 libbb/lib.a(ask_confirmation.o)
 .debug_info    0x0000000000040e1f       0xf3 libbb/lib.a(bb_qsort.o)
 .debug_info    0x0000000000040f12       0xbd libbb/lib.a(concat_subpath_file.o)
 .debug_info    0x0000000000040fcf       0x4c libbb/lib.a(perror_nomsg.o)
 .debug_info    0x000000000004101b      0x114 /opt/toolchains/crosstools-arm-gcc-4.6-linux-3.4-uclibc-0.9.32-binutils-2.21-NPTL/usr/lib/gcc/arm-unknown-linux-uclibcgnueabi/4.6.2/libgcc.a(_udivsi3.o)
 .debug_info    0x000000000004112f      0x114 /opt/toolchains/crosstools-arm-gcc-4.6-linux-3.4-uclibc-0.9.32-binutils-2.21-NPTL/usr/lib/gcc/arm-unknown-linux-uclibcgnueabi/4.6.2/libgcc.a(_divsi3.o)
 .debug_info    0x0000000000041243      0x114 /opt/toolchains/crosstools-arm-gcc-4.6-linux-3.4-uclibc-0.9.32-binutils-2.21-NPTL/usr/lib/gcc/arm-unknown-linux-uclibcgnueabi/4.6.2/libgcc.a(_lshrdi3.o)
 .debug_info    0x0000000000041357      0x114 /opt/toolchains/crosstools-arm-gcc-4.6-linux-3.4-uclibc-0.9.32-binutils-2.21-NPTL/usr/lib/gcc/arm-unknown-linux-uclibcgnueabi/4.6.2/libgcc.a(_ashldi3.o)
 .debug_info    0x000000000004146b      0x113 /opt/toolchains/crosstools-arm-gcc-4.6-linux-3.4-uclibc-0.9.32-binutils-2.21-NPTL/usr/lib/gcc/arm-unknown-linux-uclibcgnueabi/4.6.2/libgcc.a(_arm_addsubdf3.o)
 .debug_info    0x000000000004157e      0x113 /opt/toolchains/crosstools-arm-gcc-4.6-linux-3.4-uclibc-0.9.32-binutils-2.21-NPTL/usr/lib/gcc/arm-unknown-linux-uclibcgnueabi/4.6.2/libgcc.a(_arm_muldivdf3.o)
 .debug_info    0x0000000000041691      0x10e /opt/toolchains/crosstools-arm-gcc-4.6-linux-3.4-uclibc-0.9.32-binutils-2.21-NPTL/usr/lib/gcc/arm-unknown-linux-uclibcgnueabi/4.6.2/libgcc.a(_aeabi_ldivmod.o)
 .debug_info    0x000000000004179f      0x10e /opt/toolchains/crosstools-arm-gcc-4.6-linux-3.4-uclibc-0.9.32-binutils-2.21-NPTL/usr/lib/gcc/arm-unknown-linux-uclibcgnueabi/4.6.2/libgcc.a(_aeabi_uldivmod.o)
 .debug_info    0x00000000000418ad      0x114 /opt/toolchains/crosstools-arm-gcc-4.6-linux-3.4-uclibc-0.9.32-binutils-2.21-NPTL/usr/lib/gcc/arm-unknown-linux-uclibcgnueabi/4.6.2/libgcc.a(_dvmd_lnx.o)
 .debug_info    0x00000000000419c1       0xfc /opt/toolchains/crosstools-arm-gcc-4.6-linux-3.4-uclibc-0.9.32-binutils-2.21-NPTL/usr/lib/gcc/arm-unknown-linux-uclibcgnueabi/4.6.2/libgcc.a(_fixunsdfdi.o)
 .debug_info    0x0000000000041abd       0xec /opt/toolchains/crosstools-arm-gcc-4.6-linux-3.4-uclibc-0.9.32-binutils-2.21-NPTL/usr/lib/gcc/arm-unknown-linux-uclibcgnueabi/4.6.2/libgcc.a(bpabi.o)
 .debug_info    0x0000000000041ba9      0x113 /opt/toolchains/crosstools-arm-gcc-4.6-linux-3.4-uclibc-0.9.32-binutils-2.21-NPTL/usr/lib/gcc/arm-unknown-linux-uclibcgnueabi/4.6.2/libgcc.a(_arm_fixunsdfsi.o)
 .debug_info    0x0000000000041cbc      0x5e8 /opt/toolchains/crosstools-arm-gcc-4.6-linux-3.4-uclibc-0.9.32-binutils-2.21-NPTL/usr/lib/gcc/arm-unknown-linux-uclibcgnueabi/4.6.2/libgcc.a(_divdi3.o)
 .debug_info    0x00000000000422a4      0x5ab /opt/toolchains/crosstools-arm-gcc-4.6-linux-3.4-uclibc-0.9.32-binutils-2.21-NPTL/usr/lib/gcc/arm-unknown-linux-uclibcgnueabi/4.6.2/libgcc.a(_udivdi3.o)
 .debug_info    0x000000000004284f     0x12bd /opt/toolchains/crosstools-arm-gcc-4.6-linux-3.4-uclibc-0.9.32-binutils-2.21-NPTL/usr/lib/gcc/arm-unknown-linux-uclibcgnueabi/4.6.2/libgcc_eh.a(unwind-arm.o)
 .debug_info    0x0000000000043b0c      0x112 /opt/toolchains/crosstools-arm-gcc-4.6-linux-3.4-uclibc-0.9.32-binutils-2.21-NPTL/usr/lib/gcc/arm-unknown-linux-uclibcgnueabi/4.6.2/libgcc_eh.a(libunwind.o)
 .debug_info    0x0000000000043c1e      0x67b /opt/toolchains/crosstools-arm-gcc-4.6-linux-3.4-uclibc-0.9.32-binutils-2.21-NPTL/usr/lib/gcc/arm-unknown-linux-uclibcgnueabi/4.6.2/libgcc_eh.a(pr-support.o)

.debug_abbrev   0x0000000000000000     0xe338
 *(SORT(.debug_abbrev) SORT(.zdebug_abbrev))
 .debug_abbrev  0x0000000000000000       0x2a applets/built-in.o
 .debug_abbrev  0x000000000000002a      0x28d libbb/lib.a(appletlib.o)
 .debug_abbrev  0x00000000000002b7       0x71 libbb/lib.a(bb_basename.o)
 .debug_abbrev  0x0000000000000328       0x60 libbb/lib.a(default_error_retval.o)
 .debug_abbrev  0x0000000000000388       0x8a libbb/lib.a(get_last_path_component.o)
 .debug_abbrev  0x0000000000000412       0x87 libbb/lib.a(last_char_is.o)
 .debug_abbrev  0x0000000000000499       0x82 libbb/lib.a(messages.o)
 .debug_abbrev  0x000000000000051b       0x42 libbb/lib.a(ptr_to_globals.o)
 .debug_abbrev  0x000000000000055d       0xd2 libbb/lib.a(xfunc_die.o)
 .debug_abbrev  0x000000000000062f      0x1fa libbb/lib.a(xfuncs.o)
 .debug_abbrev  0x0000000000000829      0x2c9 libbb/lib.a(xfuncs_printf.o)
 .debug_abbrev  0x0000000000000af2      0x13f libbb/lib.a(copyfd.o)
 .debug_abbrev  0x0000000000000c31       0x8b libbb/lib.a(full_write.o)
 .debug_abbrev  0x0000000000000cbc       0xdd libbb/lib.a(perror_msg.o)
 .debug_abbrev  0x0000000000000d99       0xc5 libbb/lib.a(read.o)
 .debug_abbrev  0x0000000000000e5e       0xa5 libbb/lib.a(safe_write.o)
 .debug_abbrev  0x0000000000000f03      0x14c libbb/lib.a(time.o)
 .debug_abbrev  0x000000000000104f      0x127 libbb/lib.a(verror_msg.o)
 .debug_abbrev  0x0000000000001176      0x141 libbb/lib.a(bb_strtonum.o)
 .debug_abbrev  0x00000000000012b7       0x9a loginutils/lib.a(deluser.o)
 .debug_abbrev  0x0000000000001351      0x1a3 miscutils/lib.a(chrt.o)
 .debug_abbrev  0x00000000000014f4      0x200 miscutils/lib.a(flash_eraseall.o)
 .debug_abbrev  0x00000000000016f4      0x129 miscutils/lib.a(sysinfo.o)
 .debug_abbrev  0x000000000000181d      0x170 miscutils/lib.a(taskset.o)
 .debug_abbrev  0x000000000000198d      0x270 modutils/lib.a(depmod.o)
 .debug_abbrev  0x0000000000001bfd       0x79 modutils/lib.a(insmod.o)
 .debug_abbrev  0x0000000000001c76      0x374 modutils/lib.a(modprobe.o)
 .debug_abbrev  0x0000000000001fea      0x137 modutils/lib.a(modutils.o)
 .debug_abbrev  0x0000000000002121       0xca modutils/lib.a(rmmod.o)
 .debug_abbrev  0x00000000000021eb      0x394 networking/lib.a(ftpgetput.o)
 .debug_abbrev  0x000000000000257f      0x27a networking/lib.a(ifconfig.o)
 .debug_abbrev  0x00000000000027f9      0x3af networking/lib.a(interface.o)
 .debug_abbrev  0x0000000000002ba8      0x140 networking/lib.a(nc.o)
 .debug_abbrev  0x0000000000002ce8      0x3fe networking/lib.a(ping.o)
 .debug_abbrev  0x00000000000030e6      0x2bc networking/lib.a(route.o)
 .debug_abbrev  0x00000000000033a2      0x1ca networking/lib.a(sendarp.o)
 .debug_abbrev  0x000000000000356c      0x354 networking/lib.a(tftp.o)
 .debug_abbrev  0x00000000000038c0      0x342 networking/lib.a(tftpd.o)
 .debug_abbrev  0x0000000000003c02      0x3a5 networking/lib.a(traceroute.o)
 .debug_abbrev  0x0000000000003fa7      0x187 networking/lib.a(vconfig.o)
 .debug_abbrev  0x000000000000412e      0x3ab networking/lib.a(wget.o)
 .debug_abbrev  0x00000000000044d9      0x143 procps/lib.a(kill.o)
 .debug_abbrev  0x000000000000461c      0x161 procps/lib.a(ps.o)
 .debug_abbrev  0x000000000000477d      0x3d4 procps/lib.a(top.o)
 .debug_abbrev  0x0000000000004b51      0x55f shell/lib.a(ash.o)
 .debug_abbrev  0x00000000000050b0       0x37 shell/lib.a(ash_ptr_hack.o)
 .debug_abbrev  0x00000000000050e7      0x25e shell/lib.a(math.o)
 .debug_abbrev  0x0000000000005345      0x324 shell/lib.a(shell_common.o)
 .debug_abbrev  0x0000000000005669      0x185 sysklogd/lib.a(klogd.o)
 .debug_abbrev  0x00000000000057ee      0x1d3 sysklogd/lib.a(logread.o)
 .debug_abbrev  0x00000000000059c1      0x443 sysklogd/lib.a(syslogd_and_logger.o)
 .debug_abbrev  0x0000000000005e04       0x93 util-linux/lib.a(dmesg.o)
 .debug_abbrev  0x0000000000005e97      0x21d util-linux/lib.a(more.o)
 .debug_abbrev  0x00000000000060b4      0x2d1 util-linux/lib.a(mount.o)
 .debug_abbrev  0x0000000000006385      0x19e util-linux/lib.a(umount.o)
 .debug_abbrev  0x0000000000006523      0x1b7 archival/lib.a(bbunzip.o)
 .debug_abbrev  0x00000000000066da      0x1b8 archival/libunarchive/lib.a(decompress_bunzip2.o)
 .debug_abbrev  0x0000000000006892      0x392 archival/libunarchive/lib.a(decompress_unzip.o)
 .debug_abbrev  0x0000000000006c24       0xc8 coreutils/lib.a(cat.o)
 .debug_abbrev  0x0000000000006cec      0x109 coreutils/lib.a(chmod.o)
 .debug_abbrev  0x0000000000006df5       0xf2 coreutils/lib.a(cp.o)
 .debug_abbrev  0x0000000000006ee7      0x177 coreutils/lib.a(date.o)
 .debug_abbrev  0x000000000000705e      0x26f coreutils/lib.a(dd.o)
 .debug_abbrev  0x00000000000072cd      0x1ae coreutils/lib.a(df.o)
 .debug_abbrev  0x000000000000747b      0x158 coreutils/lib.a(echo.o)
 .debug_abbrev  0x00000000000075d3      0x2ad coreutils/lib.a(expr.o)
 .debug_abbrev  0x0000000000007880       0x6a coreutils/lib.a(false.o)
 .debug_abbrev  0x00000000000078ea       0xf7 coreutils/lib.a(ln.o)
 .debug_abbrev  0x00000000000079e1      0x358 coreutils/lib.a(ls.o)
 .debug_abbrev  0x0000000000007d39       0xbe coreutils/lib.a(mkdir.o)
 .debug_abbrev  0x0000000000007df7      0x106 coreutils/lib.a(mknod.o)
 .debug_abbrev  0x0000000000007efd       0x6a coreutils/lib.a(pwd.o)
 .debug_abbrev  0x0000000000007f67       0xc1 coreutils/lib.a(rm.o)
 .debug_abbrev  0x0000000000008028      0x121 coreutils/lib.a(sleep.o)
 .debug_abbrev  0x0000000000008149      0x35c coreutils/lib.a(stty.o)
 .debug_abbrev  0x00000000000084a5       0x5b coreutils/lib.a(sync.o)
 .debug_abbrev  0x0000000000008500      0x285 coreutils/lib.a(test.o)
 .debug_abbrev  0x0000000000008785       0x37 coreutils/lib.a(test_ptr_hack.o)
 .debug_abbrev  0x00000000000087bc       0x6a coreutils/lib.a(true.o)
 .debug_abbrev  0x0000000000008826       0x93 coreutils/lib.a(tty.o)
 .debug_abbrev  0x00000000000088b9       0xda coreutils/libcoreutils/lib.a(cp_mv_stat.o)
 .debug_abbrev  0x0000000000008993       0x86 coreutils/libcoreutils/lib.a(getopt_mk_fifo_nod.o)
 .debug_abbrev  0x0000000000008a19      0x2ee findutils/lib.a(grep.o)
 .debug_abbrev  0x0000000000008d07       0xd7 init/lib.a(halt.o)
 .debug_abbrev  0x0000000000008dde      0x3f2 init/lib.a(init.o)
 .debug_abbrev  0x00000000000091d0       0xdf libbb/lib.a(bb_pwd.o)
 .debug_abbrev  0x00000000000092af       0xb1 libbb/lib.a(compare_string_array.o)
 .debug_abbrev  0x0000000000009360       0x71 libbb/lib.a(concat_path_file.o)
 .debug_abbrev  0x00000000000093d1      0x212 libbb/lib.a(copy_file.o)
 .debug_abbrev  0x00000000000095e3       0x88 libbb/lib.a(crc32.o)
 .debug_abbrev  0x000000000000966b       0xb9 libbb/lib.a(create_icmp6_socket.o)
 .debug_abbrev  0x0000000000009724       0xac libbb/lib.a(create_icmp_socket.o)
 .debug_abbrev  0x00000000000097d0       0x80 libbb/lib.a(device_open.o)
 .debug_abbrev  0x0000000000009850       0xde libbb/lib.a(execable.o)
 .debug_abbrev  0x000000000000992e      0x126 libbb/lib.a(fclose_nonstdin.o)
 .debug_abbrev  0x0000000000009a54      0x12b libbb/lib.a(fflush_stdout_and_exit.o)
 .debug_abbrev  0x0000000000009b7f      0x13a libbb/lib.a(find_mount_point.o)
 .debug_abbrev  0x0000000000009cb9      0x198 libbb/lib.a(find_pid_by_name.o)
 .debug_abbrev  0x0000000000009e51      0x179 libbb/lib.a(get_line_from_file.o)
 .debug_abbrev  0x0000000000009fca      0x1a7 libbb/lib.a(getopt32.o)
 .debug_abbrev  0x000000000000a171       0xed libbb/lib.a(human_readable.o)
 .debug_abbrev  0x000000000000a25e      0x152 libbb/lib.a(inet_common.o)
 .debug_abbrev  0x000000000000a3b0       0xe9 libbb/lib.a(info_msg.o)
 .debug_abbrev  0x000000000000a499      0x119 libbb/lib.a(inode_hash.o)
 .debug_abbrev  0x000000000000a5b2       0xad libbb/lib.a(isdirectory.o)
 .debug_abbrev  0x000000000000a65f      0x380 libbb/lib.a(lineedit.o)
 .debug_abbrev  0x000000000000a9df       0x37 libbb/lib.a(lineedit_ptr_hack.o)
 .debug_abbrev  0x000000000000aa16      0x174 libbb/lib.a(llist.o)
 .debug_abbrev  0x000000000000ab8a      0x1e0 libbb/lib.a(login.o)
 .debug_abbrev  0x000000000000ad6a      0x104 libbb/lib.a(make_directory.o)
 .debug_abbrev  0x000000000000ae6e       0x8a libbb/lib.a(makedev.o)
 .debug_abbrev  0x000000000000aef8       0xaf libbb/lib.a(match_fstype.o)
 .debug_abbrev  0x000000000000afa7       0xd5 libbb/lib.a(mode_string.o)
 .debug_abbrev  0x000000000000b07c       0x79 libbb/lib.a(mtab_file.o)
 .debug_abbrev  0x000000000000b0f5      0x1ce libbb/lib.a(parse_config.o)
 .debug_abbrev  0x000000000000b2c3       0xe0 libbb/lib.a(parse_mode.o)
 .debug_abbrev  0x000000000000b3a3       0x41 libbb/lib.a(perror_nomsg_and_die.o)
 .debug_abbrev  0x000000000000b3e4       0xde libbb/lib.a(printable_string.o)
 .debug_abbrev  0x000000000000b4c2       0xa3 libbb/lib.a(process_escape_sequence.o)
 .debug_abbrev  0x000000000000b565      0x354 libbb/lib.a(procps.o)
 .debug_abbrev  0x000000000000b8b9      0x176 libbb/lib.a(read_key.o)
 .debug_abbrev  0x000000000000ba2f      0x1ae libbb/lib.a(read_printf.o)
 .debug_abbrev  0x000000000000bbdd      0x16f libbb/lib.a(recursive_action.o)
 .debug_abbrev  0x000000000000bd4c      0x1a0 libbb/lib.a(remove_file.o)
 .debug_abbrev  0x000000000000beec       0xa4 libbb/lib.a(safe_gethostname.o)
 .debug_abbrev  0x000000000000bf90       0xc5 libbb/lib.a(safe_poll.o)
 .debug_abbrev  0x000000000000c055       0xa4 libbb/lib.a(safe_strncpy.o)
 .debug_abbrev  0x000000000000c0f9      0x1e8 libbb/lib.a(signals.o)
 .debug_abbrev  0x000000000000c2e1       0x8a libbb/lib.a(simplify_path.o)
 .debug_abbrev  0x000000000000c36b       0x8a libbb/lib.a(skip_whitespace.o)
 .debug_abbrev  0x000000000000c3f5      0x101 libbb/lib.a(speed_table.o)
 .debug_abbrev  0x000000000000c4f6       0xc1 libbb/lib.a(str_tolower.o)
 .debug_abbrev  0x000000000000c5b7       0x7a libbb/lib.a(strrstr.o)
 .debug_abbrev  0x000000000000c631      0x160 libbb/lib.a(u_signal_names.o)
 .debug_abbrev  0x000000000000c791      0x184 libbb/lib.a(udp_io.o)
 .debug_abbrev  0x000000000000c915      0x194 libbb/lib.a(update_passwd.o)
 .debug_abbrev  0x000000000000caa9      0x115 libbb/lib.a(vfork_daemon_rexec.o)
 .debug_abbrev  0x000000000000cbbe      0x16a libbb/lib.a(wfopen.o)
 .debug_abbrev  0x000000000000cd28      0x155 libbb/lib.a(wfopen_input.o)
 .debug_abbrev  0x000000000000ce7d      0x17d libbb/lib.a(xatonum.o)
 .debug_abbrev  0x000000000000cffa      0x39c libbb/lib.a(xconnect.o)
 .debug_abbrev  0x000000000000d396       0x93 libbb/lib.a(xgetcwd.o)
 .debug_abbrev  0x000000000000d429       0xd7 libbb/lib.a(xreadlink.o)
 .debug_abbrev  0x000000000000d500       0x84 libbb/lib.a(xrealloc_vector.o)
 .debug_abbrev  0x000000000000d584       0xed libbb/lib.a(xregcomp.o)
 .debug_abbrev  0x000000000000d671      0x138 libbb/lib.a(ask_confirmation.o)
 .debug_abbrev  0x000000000000d7a9       0x86 libbb/lib.a(bb_qsort.o)
 .debug_abbrev  0x000000000000d82f       0x71 libbb/lib.a(concat_subpath_file.o)
 .debug_abbrev  0x000000000000d8a0       0x41 libbb/lib.a(perror_nomsg.o)
 .debug_abbrev  0x000000000000d8e1       0x14 /opt/toolchains/crosstools-arm-gcc-4.6-linux-3.4-uclibc-0.9.32-binutils-2.21-NPTL/usr/lib/gcc/arm-unknown-linux-uclibcgnueabi/4.6.2/libgcc.a(_udivsi3.o)
 .debug_abbrev  0x000000000000d8f5       0x14 /opt/toolchains/crosstools-arm-gcc-4.6-linux-3.4-uclibc-0.9.32-binutils-2.21-NPTL/usr/lib/gcc/arm-unknown-linux-uclibcgnueabi/4.6.2/libgcc.a(_divsi3.o)
 .debug_abbrev  0x000000000000d909       0x14 /opt/toolchains/crosstools-arm-gcc-4.6-linux-3.4-uclibc-0.9.32-binutils-2.21-NPTL/usr/lib/gcc/arm-unknown-linux-uclibcgnueabi/4.6.2/libgcc.a(_lshrdi3.o)
 .debug_abbrev  0x000000000000d91d       0x14 /opt/toolchains/crosstools-arm-gcc-4.6-linux-3.4-uclibc-0.9.32-binutils-2.21-NPTL/usr/lib/gcc/arm-unknown-linux-uclibcgnueabi/4.6.2/libgcc.a(_ashldi3.o)
 .debug_abbrev  0x000000000000d931       0x14 /opt/toolchains/crosstools-arm-gcc-4.6-linux-3.4-uclibc-0.9.32-binutils-2.21-NPTL/usr/lib/gcc/arm-unknown-linux-uclibcgnueabi/4.6.2/libgcc.a(_arm_addsubdf3.o)
 .debug_abbrev  0x000000000000d945       0x14 /opt/toolchains/crosstools-arm-gcc-4.6-linux-3.4-uclibc-0.9.32-binutils-2.21-NPTL/usr/lib/gcc/arm-unknown-linux-uclibcgnueabi/4.6.2/libgcc.a(_arm_muldivdf3.o)
 .debug_abbrev  0x000000000000d959       0x14 /opt/toolchains/crosstools-arm-gcc-4.6-linux-3.4-uclibc-0.9.32-binutils-2.21-NPTL/usr/lib/gcc/arm-unknown-linux-uclibcgnueabi/4.6.2/libgcc.a(_aeabi_ldivmod.o)
 .debug_abbrev  0x000000000000d96d       0x14 /opt/toolchains/crosstools-arm-gcc-4.6-linux-3.4-uclibc-0.9.32-binutils-2.21-NPTL/usr/lib/gcc/arm-unknown-linux-uclibcgnueabi/4.6.2/libgcc.a(_aeabi_uldivmod.o)
 .debug_abbrev  0x000000000000d981       0x14 /opt/toolchains/crosstools-arm-gcc-4.6-linux-3.4-uclibc-0.9.32-binutils-2.21-NPTL/usr/lib/gcc/arm-unknown-linux-uclibcgnueabi/4.6.2/libgcc.a(_dvmd_lnx.o)
 .debug_abbrev  0x000000000000d995       0x82 /opt/toolchains/crosstools-arm-gcc-4.6-linux-3.4-uclibc-0.9.32-binutils-2.21-NPTL/usr/lib/gcc/arm-unknown-linux-uclibcgnueabi/4.6.2/libgcc.a(_fixunsdfdi.o)
 .debug_abbrev  0x000000000000da17       0x6c /opt/toolchains/crosstools-arm-gcc-4.6-linux-3.4-uclibc-0.9.32-binutils-2.21-NPTL/usr/lib/gcc/arm-unknown-linux-uclibcgnueabi/4.6.2/libgcc.a(bpabi.o)
 .debug_abbrev  0x000000000000da83       0x14 /opt/toolchains/crosstools-arm-gcc-4.6-linux-3.4-uclibc-0.9.32-binutils-2.21-NPTL/usr/lib/gcc/arm-unknown-linux-uclibcgnueabi/4.6.2/libgcc.a(_arm_fixunsdfsi.o)
 .debug_abbrev  0x000000000000da97      0x17a /opt/toolchains/crosstools-arm-gcc-4.6-linux-3.4-uclibc-0.9.32-binutils-2.21-NPTL/usr/lib/gcc/arm-unknown-linux-uclibcgnueabi/4.6.2/libgcc.a(_divdi3.o)
 .debug_abbrev  0x000000000000dc11      0x15c /opt/toolchains/crosstools-arm-gcc-4.6-linux-3.4-uclibc-0.9.32-binutils-2.21-NPTL/usr/lib/gcc/arm-unknown-linux-uclibcgnueabi/4.6.2/libgcc.a(_udivdi3.o)
 .debug_abbrev  0x000000000000dd6d      0x36f /opt/toolchains/crosstools-arm-gcc-4.6-linux-3.4-uclibc-0.9.32-binutils-2.21-NPTL/usr/lib/gcc/arm-unknown-linux-uclibcgnueabi/4.6.2/libgcc_eh.a(unwind-arm.o)
 .debug_abbrev  0x000000000000e0dc       0x14 /opt/toolchains/crosstools-arm-gcc-4.6-linux-3.4-uclibc-0.9.32-binutils-2.21-NPTL/usr/lib/gcc/arm-unknown-linux-uclibcgnueabi/4.6.2/libgcc_eh.a(libunwind.o)
 .debug_abbrev  0x000000000000e0f0      0x248 /opt/toolchains/crosstools-arm-gcc-4.6-linux-3.4-uclibc-0.9.32-binutils-2.21-NPTL/usr/lib/gcc/arm-unknown-linux-uclibcgnueabi/4.6.2/libgcc_eh.a(pr-support.o)

.debug_line     0x0000000000000000    0x1d340
 *(SORT(.debug_line) SORT(.zdebug_line))
 .debug_line    0x0000000000000000       0x1d applets/built-in.o
 .debug_line    0x000000000000001d      0x2ed libbb/lib.a(appletlib.o)
 .debug_line    0x000000000000030a       0x49 libbb/lib.a(bb_basename.o)
 .debug_line    0x0000000000000353       0xeb libbb/lib.a(default_error_retval.o)
 .debug_line    0x000000000000043e       0x7f libbb/lib.a(get_last_path_component.o)
 .debug_line    0x00000000000004bd       0xf6 libbb/lib.a(last_char_is.o)
 .debug_line    0x00000000000005b3       0xdf libbb/lib.a(messages.o)
 .debug_line    0x0000000000000692       0x37 libbb/lib.a(ptr_to_globals.o)
 .debug_line    0x00000000000006c9      0x1a4 libbb/lib.a(xfunc_die.o)
 .debug_line    0x000000000000086d      0x42d libbb/lib.a(xfuncs.o)
 .debug_line    0x0000000000000c9a      0x7a1 libbb/lib.a(xfuncs_printf.o)
 .debug_line    0x000000000000143b      0x1ff libbb/lib.a(copyfd.o)
 .debug_line    0x000000000000163a      0x222 libbb/lib.a(full_write.o)
 .debug_line    0x000000000000185c      0x145 libbb/lib.a(perror_msg.o)
 .debug_line    0x00000000000019a1      0x279 libbb/lib.a(read.o)
 .debug_line    0x0000000000001c1a      0x22f libbb/lib.a(safe_write.o)
 .debug_line    0x0000000000001e49      0x24f libbb/lib.a(time.o)
 .debug_line    0x0000000000002098      0x221 libbb/lib.a(verror_msg.o)
 .debug_line    0x00000000000022b9      0x131 libbb/lib.a(bb_strtonum.o)
 .debug_line    0x00000000000023ea       0x7b loginutils/lib.a(deluser.o)
 .debug_line    0x0000000000002465      0x228 miscutils/lib.a(chrt.o)
 .debug_line    0x000000000000268d      0x5e2 miscutils/lib.a(flash_eraseall.o)
 .debug_line    0x0000000000002c6f      0x1df miscutils/lib.a(sysinfo.o)
 .debug_line    0x0000000000002e4e      0x225 miscutils/lib.a(taskset.o)
 .debug_line    0x0000000000003073      0x415 modutils/lib.a(depmod.o)
 .debug_line    0x0000000000003488       0x4a modutils/lib.a(insmod.o)
 .debug_line    0x00000000000034d2      0x593 modutils/lib.a(modprobe.o)
 .debug_line    0x0000000000003a65      0x1c9 modutils/lib.a(modutils.o)
 .debug_line    0x0000000000003c2e      0x11f modutils/lib.a(rmmod.o)
 .debug_line    0x0000000000003d4d      0x6c9 networking/lib.a(ftpgetput.o)
 .debug_line    0x0000000000004416      0x4cd networking/lib.a(ifconfig.o)
 .debug_line    0x00000000000048e3      0x832 networking/lib.a(interface.o)
 .debug_line    0x0000000000005115      0x275 networking/lib.a(nc.o)
 .debug_line    0x000000000000538a      0x81b networking/lib.a(ping.o)
 .debug_line    0x0000000000005ba5      0x6c7 networking/lib.a(route.o)
 .debug_line    0x000000000000626c      0x54a networking/lib.a(sendarp.o)
 .debug_line    0x00000000000067b6      0x69b networking/lib.a(tftp.o)
 .debug_line    0x0000000000006e51      0x69d networking/lib.a(tftpd.o)
 .debug_line    0x00000000000074ee      0x7b1 networking/lib.a(traceroute.o)
 .debug_line    0x0000000000007c9f      0x146 networking/lib.a(vconfig.o)
 .debug_line    0x0000000000007de5      0x71f networking/lib.a(wget.o)
 .debug_line    0x0000000000008504      0x29c procps/lib.a(kill.o)
 .debug_line    0x00000000000087a0      0x131 procps/lib.a(ps.o)
 .debug_line    0x00000000000088d1      0x7ff procps/lib.a(top.o)
 .debug_line    0x00000000000090d0     0x35ad shell/lib.a(ash.o)
 .debug_line    0x000000000000c67d       0x35 shell/lib.a(ash_ptr_hack.o)
 .debug_line    0x000000000000c6b2      0x359 shell/lib.a(math.o)
 .debug_line    0x000000000000ca0b      0x529 shell/lib.a(shell_common.o)
 .debug_line    0x000000000000cf34      0x1d1 sysklogd/lib.a(klogd.o)
 .debug_line    0x000000000000d105      0x390 sysklogd/lib.a(logread.o)
 .debug_line    0x000000000000d495      0x73c sysklogd/lib.a(syslogd_and_logger.o)
 .debug_line    0x000000000000dbd1       0x74 util-linux/lib.a(dmesg.o)
 .debug_line    0x000000000000dc45      0x3b7 util-linux/lib.a(more.o)
 .debug_line    0x000000000000dffc      0x5b0 util-linux/lib.a(mount.o)
 .debug_line    0x000000000000e5ac      0x3b3 util-linux/lib.a(umount.o)
 .debug_line    0x000000000000e95f      0x2df archival/lib.a(bbunzip.o)
 .debug_line    0x000000000000ec3e      0x5a7 archival/libunarchive/lib.a(decompress_bunzip2.o)
 .debug_line    0x000000000000f1e5      0x8dd archival/libunarchive/lib.a(decompress_unzip.o)
 .debug_line    0x000000000000fac2      0x1bf coreutils/lib.a(cat.o)
 .debug_line    0x000000000000fc81      0x2b4 coreutils/lib.a(chmod.o)
 .debug_line    0x000000000000ff35      0x202 coreutils/lib.a(cp.o)
 .debug_line    0x0000000000010137      0x23b coreutils/lib.a(date.o)
 .debug_line    0x0000000000010372      0x493 coreutils/lib.a(dd.o)
 .debug_line    0x0000000000010805      0x2f5 coreutils/lib.a(df.o)
 .debug_line    0x0000000000010afa      0x25c coreutils/lib.a(echo.o)
 .debug_line    0x0000000000010d56      0x487 coreutils/lib.a(expr.o)
 .debug_line    0x00000000000111dd       0x42 coreutils/lib.a(false.o)
 .debug_line    0x000000000001121f      0x1fa coreutils/lib.a(ln.o)
 .debug_line    0x0000000000011419      0x713 coreutils/lib.a(ls.o)
 .debug_line    0x0000000000011b2c      0x1c8 coreutils/lib.a(mkdir.o)
 .debug_line    0x0000000000011cf4      0x1c8 coreutils/lib.a(mknod.o)
 .debug_line    0x0000000000011ebc       0x46 coreutils/lib.a(pwd.o)
 .debug_line    0x0000000000011f02      0x11e coreutils/lib.a(rm.o)
 .debug_line    0x0000000000012020      0x128 coreutils/lib.a(sleep.o)
 .debug_line    0x0000000000012148      0x706 coreutils/lib.a(stty.o)
 .debug_line    0x000000000001284e       0x42 coreutils/lib.a(sync.o)
 .debug_line    0x0000000000012890      0x42b coreutils/lib.a(test.o)
 .debug_line    0x0000000000012cbb       0x3a coreutils/lib.a(test_ptr_hack.o)
 .debug_line    0x0000000000012cf5       0x41 coreutils/lib.a(true.o)
 .debug_line    0x0000000000012d36       0x65 coreutils/lib.a(tty.o)
 .debug_line    0x0000000000012d9b      0x1cb coreutils/libcoreutils/lib.a(cp_mv_stat.o)
 .debug_line    0x0000000000012f66      0x19e coreutils/libcoreutils/lib.a(getopt_mk_fifo_nod.o)
 .debug_line    0x0000000000013104      0x498 findutils/lib.a(grep.o)
 .debug_line    0x000000000001359c      0x1b4 init/lib.a(halt.o)
 .debug_line    0x0000000000013750      0x704 init/lib.a(init.o)
 .debug_line    0x0000000000013e54      0x328 libbb/lib.a(bb_pwd.o)
 .debug_line    0x000000000001417c       0xb8 libbb/lib.a(compare_string_array.o)
 .debug_line    0x0000000000014234       0x64 libbb/lib.a(concat_path_file.o)
 .debug_line    0x0000000000014298      0x41a libbb/lib.a(copy_file.o)
 .debug_line    0x00000000000146b2       0xf3 libbb/lib.a(crc32.o)
 .debug_line    0x00000000000147a5      0x19c libbb/lib.a(create_icmp6_socket.o)
 .debug_line    0x0000000000014941      0x101 libbb/lib.a(create_icmp_socket.o)
 .debug_line    0x0000000000014a42       0x4f libbb/lib.a(device_open.o)
 .debug_line    0x0000000000014a91      0x1fe libbb/lib.a(execable.o)
 .debug_line    0x0000000000014c8f      0x25f libbb/lib.a(fclose_nonstdin.o)
 .debug_line    0x0000000000014eee      0x25f libbb/lib.a(fflush_stdout_and_exit.o)
 .debug_line    0x000000000001514d      0x346 libbb/lib.a(find_mount_point.o)
 .debug_line    0x0000000000015493      0x2a5 libbb/lib.a(find_pid_by_name.o)
 .debug_line    0x0000000000015738      0x2be libbb/lib.a(get_line_from_file.o)
 .debug_line    0x00000000000159f6      0x444 libbb/lib.a(getopt32.o)
 .debug_line    0x0000000000015e3a      0x130 libbb/lib.a(human_readable.o)
 .debug_line    0x0000000000015f6a      0x316 libbb/lib.a(inet_common.o)
 .debug_line    0x0000000000016280      0x119 libbb/lib.a(info_msg.o)
 .debug_line    0x0000000000016399      0x27a libbb/lib.a(inode_hash.o)
 .debug_line    0x0000000000016613      0x199 libbb/lib.a(isdirectory.o)
 .debug_line    0x00000000000167ac      0xa17 libbb/lib.a(lineedit.o)
 .debug_line    0x00000000000171c3       0x3a libbb/lib.a(lineedit_ptr_hack.o)
 .debug_line    0x00000000000171fd       0xf3 libbb/lib.a(llist.o)
 .debug_line    0x00000000000172f0      0x405 libbb/lib.a(login.o)
 .debug_line    0x00000000000176f5      0x2b1 libbb/lib.a(make_directory.o)
 .debug_line    0x00000000000179a6       0xf8 libbb/lib.a(makedev.o)
 .debug_line    0x0000000000017a9e      0x102 libbb/lib.a(match_fstype.o)
 .debug_line    0x0000000000017ba0      0x1bf libbb/lib.a(mode_string.o)
 .debug_line    0x0000000000017d5f       0xe0 libbb/lib.a(mtab_file.o)
 .debug_line    0x0000000000017e3f      0x326 libbb/lib.a(parse_config.o)
 .debug_line    0x0000000000018165      0x209 libbb/lib.a(parse_mode.o)
 .debug_line    0x000000000001836e       0x4f libbb/lib.a(perror_nomsg_and_die.o)
 .debug_line    0x00000000000183bd       0x87 libbb/lib.a(printable_string.o)
 .debug_line    0x0000000000018444       0x86 libbb/lib.a(process_escape_sequence.o)
 .debug_line    0x00000000000184ca      0x48e libbb/lib.a(procps.o)
 .debug_line    0x0000000000018958      0x22d libbb/lib.a(read_key.o)
 .debug_line    0x0000000000018b85      0x3df libbb/lib.a(read_printf.o)
 .debug_line    0x0000000000018f64      0x1f2 libbb/lib.a(recursive_action.o)
 .debug_line    0x0000000000019156      0x2bd libbb/lib.a(remove_file.o)
 .debug_line    0x0000000000019413      0x110 libbb/lib.a(safe_gethostname.o)
 .debug_line    0x0000000000019523      0x101 libbb/lib.a(safe_poll.o)
 .debug_line    0x0000000000019624       0xf5 libbb/lib.a(safe_strncpy.o)
 .debug_line    0x0000000000019719      0x346 libbb/lib.a(signals.o)
 .debug_line    0x0000000000019a5f       0x9e libbb/lib.a(simplify_path.o)
 .debug_line    0x0000000000019afd       0x7e libbb/lib.a(skip_whitespace.o)
 .debug_line    0x0000000000019b7b      0x120 libbb/lib.a(speed_table.o)
 .debug_line    0x0000000000019c9b       0x7a libbb/lib.a(str_tolower.o)
 .debug_line    0x0000000000019d15       0x49 libbb/lib.a(strrstr.o)
 .debug_line    0x0000000000019d5e      0x150 libbb/lib.a(u_signal_names.o)
 .debug_line    0x0000000000019eae      0x41d libbb/lib.a(udp_io.o)
 .debug_line    0x000000000001a2cb      0x2d4 libbb/lib.a(update_passwd.o)
 .debug_line    0x000000000001a59f      0x211 libbb/lib.a(vfork_daemon_rexec.o)
 .debug_line    0x000000000001a7b0      0x2d6 libbb/lib.a(wfopen.o)
 .debug_line    0x000000000001aa86      0x2a5 libbb/lib.a(wfopen_input.o)
 .debug_line    0x000000000001ad2b      0x3ee libbb/lib.a(xatonum.o)
 .debug_line    0x000000000001b119      0x684 libbb/lib.a(xconnect.o)
 .debug_line    0x000000000001b79d       0x67 libbb/lib.a(xgetcwd.o)
 .debug_line    0x000000000001b804       0xb9 libbb/lib.a(xreadlink.o)
 .debug_line    0x000000000001b8bd       0xea libbb/lib.a(xrealloc_vector.o)
 .debug_line    0x000000000001b9a7      0x18b libbb/lib.a(xregcomp.o)
 .debug_line    0x000000000001bb32      0x26d libbb/lib.a(ask_confirmation.o)
 .debug_line    0x000000000001bd9f       0x55 libbb/lib.a(bb_qsort.o)
 .debug_line    0x000000000001bdf4       0x68 libbb/lib.a(concat_subpath_file.o)
 .debug_line    0x000000000001be5c       0x47 libbb/lib.a(perror_nomsg.o)
 .debug_line    0x000000000001bea3       0xc8 /opt/toolchains/crosstools-arm-gcc-4.6-linux-3.4-uclibc-0.9.32-binutils-2.21-NPTL/usr/lib/gcc/arm-unknown-linux-uclibcgnueabi/4.6.2/libgcc.a(_udivsi3.o)
 .debug_line    0x000000000001bf6b       0xd4 /opt/toolchains/crosstools-arm-gcc-4.6-linux-3.4-uclibc-0.9.32-binutils-2.21-NPTL/usr/lib/gcc/arm-unknown-linux-uclibcgnueabi/4.6.2/libgcc.a(_divsi3.o)
 .debug_line    0x000000000001c03f       0xaa /opt/toolchains/crosstools-arm-gcc-4.6-linux-3.4-uclibc-0.9.32-binutils-2.21-NPTL/usr/lib/gcc/arm-unknown-linux-uclibcgnueabi/4.6.2/libgcc.a(_lshrdi3.o)
 .debug_line    0x000000000001c0e9       0xaa /opt/toolchains/crosstools-arm-gcc-4.6-linux-3.4-uclibc-0.9.32-binutils-2.21-NPTL/usr/lib/gcc/arm-unknown-linux-uclibcgnueabi/4.6.2/libgcc.a(_ashldi3.o)
 .debug_line    0x000000000001c193      0x21f /opt/toolchains/crosstools-arm-gcc-4.6-linux-3.4-uclibc-0.9.32-binutils-2.21-NPTL/usr/lib/gcc/arm-unknown-linux-uclibcgnueabi/4.6.2/libgcc.a(_arm_addsubdf3.o)
 .debug_line    0x000000000001c3b2      0x240 /opt/toolchains/crosstools-arm-gcc-4.6-linux-3.4-uclibc-0.9.32-binutils-2.21-NPTL/usr/lib/gcc/arm-unknown-linux-uclibcgnueabi/4.6.2/libgcc.a(_arm_muldivdf3.o)
 .debug_line    0x000000000001c5f2       0xa5 /opt/toolchains/crosstools-arm-gcc-4.6-linux-3.4-uclibc-0.9.32-binutils-2.21-NPTL/usr/lib/gcc/arm-unknown-linux-uclibcgnueabi/4.6.2/libgcc.a(_aeabi_ldivmod.o)
 .debug_line    0x000000000001c697       0xa7 /opt/toolchains/crosstools-arm-gcc-4.6-linux-3.4-uclibc-0.9.32-binutils-2.21-NPTL/usr/lib/gcc/arm-unknown-linux-uclibcgnueabi/4.6.2/libgcc.a(_aeabi_uldivmod.o)
 .debug_line    0x000000000001c73e       0xaa /opt/toolchains/crosstools-arm-gcc-4.6-linux-3.4-uclibc-0.9.32-binutils-2.21-NPTL/usr/lib/gcc/arm-unknown-linux-uclibcgnueabi/4.6.2/libgcc.a(_dvmd_lnx.o)
 .debug_line    0x000000000001c7e8       0xa9 /opt/toolchains/crosstools-arm-gcc-4.6-linux-3.4-uclibc-0.9.32-binutils-2.21-NPTL/usr/lib/gcc/arm-unknown-linux-uclibcgnueabi/4.6.2/libgcc.a(_fixunsdfdi.o)
 .debug_line    0x000000000001c891       0xa6 /opt/toolchains/crosstools-arm-gcc-4.6-linux-3.4-uclibc-0.9.32-binutils-2.21-NPTL/usr/lib/gcc/arm-unknown-linux-uclibcgnueabi/4.6.2/libgcc.a(bpabi.o)
 .debug_line    0x000000000001c937       0xb7 /opt/toolchains/crosstools-arm-gcc-4.6-linux-3.4-uclibc-0.9.32-binutils-2.21-NPTL/usr/lib/gcc/arm-unknown-linux-uclibcgnueabi/4.6.2/libgcc.a(_arm_fixunsdfsi.o)
 .debug_line    0x000000000001c9ee      0x118 /opt/toolchains/crosstools-arm-gcc-4.6-linux-3.4-uclibc-0.9.32-binutils-2.21-NPTL/usr/lib/gcc/arm-unknown-linux-uclibcgnueabi/4.6.2/libgcc.a(_divdi3.o)
 .debug_line    0x000000000001cb06      0x108 /opt/toolchains/crosstools-arm-gcc-4.6-linux-3.4-uclibc-0.9.32-binutils-2.21-NPTL/usr/lib/gcc/arm-unknown-linux-uclibcgnueabi/4.6.2/libgcc.a(_udivdi3.o)
 .debug_line    0x000000000001cc0e      0x454 /opt/toolchains/crosstools-arm-gcc-4.6-linux-3.4-uclibc-0.9.32-binutils-2.21-NPTL/usr/lib/gcc/arm-unknown-linux-uclibcgnueabi/4.6.2/libgcc_eh.a(unwind-arm.o)
 .debug_line    0x000000000001d062       0xf0 /opt/toolchains/crosstools-arm-gcc-4.6-linux-3.4-uclibc-0.9.32-binutils-2.21-NPTL/usr/lib/gcc/arm-unknown-linux-uclibcgnueabi/4.6.2/libgcc_eh.a(libunwind.o)
 .debug_line    0x000000000001d152      0x1ee /opt/toolchains/crosstools-arm-gcc-4.6-linux-3.4-uclibc-0.9.32-binutils-2.21-NPTL/usr/lib/gcc/arm-unknown-linux-uclibcgnueabi/4.6.2/libgcc_eh.a(pr-support.o)

.debug_frame    0x0000000000000000     0x6790
 *(SORT(.debug_frame) SORT(.zdebug_frame))
 .debug_frame   0x0000000000000000       0xc8 libbb/lib.a(appletlib.o)
 .debug_frame   0x00000000000000c8       0x28 libbb/lib.a(bb_basename.o)
 .debug_frame   0x00000000000000f0       0x40 libbb/lib.a(get_last_path_component.o)
 .debug_frame   0x0000000000000130       0x2c libbb/lib.a(last_char_is.o)
 .debug_frame   0x000000000000015c       0x28 libbb/lib.a(xfunc_die.o)
 .debug_frame   0x0000000000000184      0x1dc libbb/lib.a(xfuncs.o)
 .debug_frame   0x0000000000000360      0x4f0 libbb/lib.a(xfuncs_printf.o)
 .debug_frame   0x0000000000000850       0x88 libbb/lib.a(copyfd.o)
 .debug_frame   0x00000000000008d8       0x30 libbb/lib.a(full_write.o)
 .debug_frame   0x0000000000000908       0x88 libbb/lib.a(perror_msg.o)
 .debug_frame   0x0000000000000990       0x88 libbb/lib.a(read.o)
 .debug_frame   0x0000000000000a18       0x30 libbb/lib.a(safe_write.o)
 .debug_frame   0x0000000000000a48       0xb4 libbb/lib.a(time.o)
 .debug_frame   0x0000000000000afc       0x8c libbb/lib.a(verror_msg.o)
 .debug_frame   0x0000000000000b88       0xa4 libbb/lib.a(bb_strtonum.o)
 .debug_frame   0x0000000000000c2c       0x38 loginutils/lib.a(deluser.o)
 .debug_frame   0x0000000000000c64       0x54 miscutils/lib.a(chrt.o)
 .debug_frame   0x0000000000000cb8       0x5c miscutils/lib.a(flash_eraseall.o)
 .debug_frame   0x0000000000000d14       0x2c miscutils/lib.a(sysinfo.o)
 .debug_frame   0x0000000000000d40       0x38 miscutils/lib.a(taskset.o)
 .debug_frame   0x0000000000000d78       0x7c modutils/lib.a(depmod.o)
 .debug_frame   0x0000000000000df4       0x2c modutils/lib.a(insmod.o)
 .debug_frame   0x0000000000000e20      0x118 modutils/lib.a(modprobe.o)
 .debug_frame   0x0000000000000f38       0xe4 modutils/lib.a(modutils.o)
 .debug_frame   0x000000000000101c       0x30 modutils/lib.a(rmmod.o)
 .debug_frame   0x000000000000104c       0x94 networking/lib.a(ftpgetput.o)
 .debug_frame   0x00000000000010e0       0x38 networking/lib.a(ifconfig.o)
 .debug_frame   0x0000000000001118      0x22c networking/lib.a(interface.o)
 .debug_frame   0x0000000000001344       0x38 networking/lib.a(nc.o)
 .debug_frame   0x000000000000137c      0x148 networking/lib.a(ping.o)
 .debug_frame   0x00000000000014c4      0x104 networking/lib.a(route.o)
 .debug_frame   0x00000000000015c8       0x58 networking/lib.a(sendarp.o)
 .debug_frame   0x0000000000001620       0x5c networking/lib.a(tftp.o)
 .debug_frame   0x000000000000167c       0xdc networking/lib.a(tftpd.o)
 .debug_frame   0x0000000000001758       0x90 networking/lib.a(traceroute.o)
 .debug_frame   0x00000000000017e8       0x48 networking/lib.a(vconfig.o)
 .debug_frame   0x0000000000001830      0x108 networking/lib.a(wget.o)
 .debug_frame   0x0000000000001938       0x38 procps/lib.a(kill.o)
 .debug_frame   0x0000000000001970       0x38 procps/lib.a(ps.o)
 .debug_frame   0x00000000000019a8      0x18c procps/lib.a(top.o)
 .debug_frame   0x0000000000001b34     0x15ac shell/lib.a(ash.o)
 .debug_frame   0x00000000000030e0       0x88 shell/lib.a(math.o)
 .debug_frame   0x0000000000003168       0x88 shell/lib.a(shell_common.o)
 .debug_frame   0x00000000000031f0       0x54 sysklogd/lib.a(klogd.o)
 .debug_frame   0x0000000000003244       0x84 sysklogd/lib.a(logread.o)
 .debug_frame   0x00000000000032c8       0xc4 sysklogd/lib.a(syslogd_and_logger.o)
 .debug_frame   0x000000000000338c       0x30 util-linux/lib.a(dmesg.o)
 .debug_frame   0x00000000000033bc       0x50 util-linux/lib.a(more.o)
 .debug_frame   0x000000000000340c       0xd4 util-linux/lib.a(mount.o)
 .debug_frame   0x00000000000034e0       0x38 util-linux/lib.a(umount.o)
 .debug_frame   0x0000000000003518       0xb4 archival/lib.a(bbunzip.o)
 .debug_frame   0x00000000000035cc       0xf4 archival/libunarchive/lib.a(decompress_bunzip2.o)
 .debug_frame   0x00000000000036c0      0x1cc archival/libunarchive/lib.a(decompress_unzip.o)
 .debug_frame   0x000000000000388c       0x4c coreutils/lib.a(cat.o)
 .debug_frame   0x00000000000038d8       0x54 coreutils/lib.a(chmod.o)
 .debug_frame   0x000000000000392c       0x34 coreutils/lib.a(cp.o)
 .debug_frame   0x0000000000003960       0x44 coreutils/lib.a(date.o)
 .debug_frame   0x00000000000039a4       0x94 coreutils/lib.a(dd.o)
 .debug_frame   0x0000000000003a38       0x48 coreutils/lib.a(df.o)
 .debug_frame   0x0000000000003a80       0x2c coreutils/lib.a(echo.o)
 .debug_frame   0x0000000000003aac      0x200 coreutils/lib.a(expr.o)
 .debug_frame   0x0000000000003cac       0x20 coreutils/lib.a(false.o)
 .debug_frame   0x0000000000003ccc       0x38 coreutils/lib.a(ln.o)
 .debug_frame   0x0000000000003d04      0x170 coreutils/lib.a(ls.o)
 .debug_frame   0x0000000000003e74       0x34 coreutils/lib.a(mkdir.o)
 .debug_frame   0x0000000000003ea8       0x34 coreutils/lib.a(mknod.o)
 .debug_frame   0x0000000000003edc       0x28 coreutils/lib.a(pwd.o)
 .debug_frame   0x0000000000003f04       0x30 coreutils/lib.a(rm.o)
 .debug_frame   0x0000000000003f34       0x30 coreutils/lib.a(sleep.o)
 .debug_frame   0x0000000000003f64      0x220 coreutils/lib.a(stty.o)
 .debug_frame   0x0000000000004184       0x28 coreutils/lib.a(sync.o)
 .debug_frame   0x00000000000041ac      0x100 coreutils/lib.a(test.o)
 .debug_frame   0x00000000000042ac       0x20 coreutils/lib.a(true.o)
 .debug_frame   0x00000000000042cc       0x28 coreutils/lib.a(tty.o)
 .debug_frame   0x00000000000042f4       0x3c coreutils/libcoreutils/lib.a(cp_mv_stat.o)
 .debug_frame   0x0000000000004330       0x2c coreutils/libcoreutils/lib.a(getopt_mk_fifo_nod.o)
 .debug_frame   0x000000000000435c       0xb0 findutils/lib.a(grep.o)
 .debug_frame   0x000000000000440c       0x30 init/lib.a(halt.o)
 .debug_frame   0x000000000000443c      0x200 init/lib.a(init.o)
 .debug_frame   0x000000000000463c      0x14c libbb/lib.a(bb_pwd.o)
 .debug_frame   0x0000000000004788       0x84 libbb/lib.a(compare_string_array.o)
 .debug_frame   0x000000000000480c       0x2c libbb/lib.a(concat_path_file.o)
 .debug_frame   0x0000000000004838       0x54 libbb/lib.a(copy_file.o)
 .debug_frame   0x000000000000488c       0x2c libbb/lib.a(crc32.o)
 .debug_frame   0x00000000000048b8       0x28 libbb/lib.a(create_icmp6_socket.o)
 .debug_frame   0x00000000000048e0       0x28 libbb/lib.a(create_icmp_socket.o)
 .debug_frame   0x0000000000004908       0x30 libbb/lib.a(device_open.o)
 .debug_frame   0x0000000000004938       0x84 libbb/lib.a(execable.o)
 .debug_frame   0x00000000000049bc       0x2c libbb/lib.a(fclose_nonstdin.o)
 .debug_frame   0x00000000000049e8       0x28 libbb/lib.a(fflush_stdout_and_exit.o)
 .debug_frame   0x0000000000004a10       0x38 libbb/lib.a(find_mount_point.o)
 .debug_frame   0x0000000000004a48       0x4c libbb/lib.a(find_pid_by_name.o)
 .debug_frame   0x0000000000004a94       0x80 libbb/lib.a(get_line_from_file.o)
 .debug_frame   0x0000000000004b14       0x44 libbb/lib.a(getopt32.o)
 .debug_frame   0x0000000000004b58       0x80 libbb/lib.a(human_readable.o)
 .debug_frame   0x0000000000004bd8       0x90 libbb/lib.a(inet_common.o)
 .debug_frame   0x0000000000004c68       0x3c libbb/lib.a(info_msg.o)
 .debug_frame   0x0000000000004ca4       0x50 libbb/lib.a(inode_hash.o)
 .debug_frame   0x0000000000004cf4       0x2c libbb/lib.a(isdirectory.o)
 .debug_frame   0x0000000000004d20      0x25c libbb/lib.a(lineedit.o)
 .debug_frame   0x0000000000004f7c       0xbc libbb/lib.a(llist.o)
 .debug_frame   0x0000000000005038       0x6c libbb/lib.a(login.o)
 .debug_frame   0x00000000000050a4       0x38 libbb/lib.a(make_directory.o)
 .debug_frame   0x00000000000050dc       0x28 libbb/lib.a(makedev.o)
 .debug_frame   0x0000000000005104       0x30 libbb/lib.a(match_fstype.o)
 .debug_frame   0x0000000000005134       0x30 libbb/lib.a(mode_string.o)
 .debug_frame   0x0000000000005164       0x90 libbb/lib.a(parse_config.o)
 .debug_frame   0x00000000000051f4       0x38 libbb/lib.a(parse_mode.o)
 .debug_frame   0x000000000000522c       0x20 libbb/lib.a(perror_nomsg_and_die.o)
 .debug_frame   0x000000000000524c       0x30 libbb/lib.a(printable_string.o)
 .debug_frame   0x000000000000527c       0x2c libbb/lib.a(process_escape_sequence.o)
 .debug_frame   0x00000000000052a8      0x148 libbb/lib.a(procps.o)
 .debug_frame   0x00000000000053f0       0x54 libbb/lib.a(read_key.o)
 .debug_frame   0x0000000000005444      0x114 libbb/lib.a(read_printf.o)
 .debug_frame   0x0000000000005558       0x48 libbb/lib.a(recursive_action.o)
 .debug_frame   0x00000000000055a0       0x38 libbb/lib.a(remove_file.o)
 .debug_frame   0x00000000000055d8       0x48 libbb/lib.a(safe_gethostname.o)
 .debug_frame   0x0000000000005620       0x30 libbb/lib.a(safe_poll.o)
 .debug_frame   0x0000000000005650       0x30 libbb/lib.a(safe_strncpy.o)
 .debug_frame   0x0000000000005680      0x130 libbb/lib.a(signals.o)
 .debug_frame   0x00000000000057b0       0x3c libbb/lib.a(simplify_path.o)
 .debug_frame   0x00000000000057ec       0x48 libbb/lib.a(skip_whitespace.o)
 .debug_frame   0x0000000000005834       0x40 libbb/lib.a(speed_table.o)
 .debug_frame   0x0000000000005874       0x20 libbb/lib.a(str_tolower.o)
 .debug_frame   0x0000000000005894       0x2c libbb/lib.a(strrstr.o)
 .debug_frame   0x00000000000058c0       0x58 libbb/lib.a(u_signal_names.o)
 .debug_frame   0x0000000000005918       0x78 libbb/lib.a(udp_io.o)
 .debug_frame   0x0000000000005990       0x38 libbb/lib.a(update_passwd.o)
 .debug_frame   0x00000000000059c8       0x90 libbb/lib.a(vfork_daemon_rexec.o)
 .debug_frame   0x0000000000005a58       0xa4 libbb/lib.a(wfopen.o)
 .debug_frame   0x0000000000005afc       0x60 libbb/lib.a(wfopen_input.o)
 .debug_frame   0x0000000000005b5c      0x38c libbb/lib.a(xatonum.o)
 .debug_frame   0x0000000000005ee8      0x28c libbb/lib.a(xconnect.o)
 .debug_frame   0x0000000000006174       0x30 libbb/lib.a(xgetcwd.o)
 .debug_frame   0x00000000000061a4       0x88 libbb/lib.a(xreadlink.o)
 .debug_frame   0x000000000000622c       0x30 libbb/lib.a(xrealloc_vector.o)
 .debug_frame   0x000000000000625c       0x48 libbb/lib.a(xregcomp.o)
 .debug_frame   0x00000000000062a4       0x2c libbb/lib.a(ask_confirmation.o)
 .debug_frame   0x00000000000062d0       0x30 libbb/lib.a(bb_qsort.o)
 .debug_frame   0x0000000000006300       0x20 libbb/lib.a(concat_subpath_file.o)
 .debug_frame   0x0000000000006320       0x20 libbb/lib.a(perror_nomsg.o)
 .debug_frame   0x0000000000006340       0x20 /opt/toolchains/crosstools-arm-gcc-4.6-linux-3.4-uclibc-0.9.32-binutils-2.21-NPTL/usr/lib/gcc/arm-unknown-linux-uclibcgnueabi/4.6.2/libgcc.a(_udivsi3.o)
 .debug_frame   0x0000000000006360       0x20 /opt/toolchains/crosstools-arm-gcc-4.6-linux-3.4-uclibc-0.9.32-binutils-2.21-NPTL/usr/lib/gcc/arm-unknown-linux-uclibcgnueabi/4.6.2/libgcc.a(_divsi3.o)
 .debug_frame   0x0000000000006380       0x30 /opt/toolchains/crosstools-arm-gcc-4.6-linux-3.4-uclibc-0.9.32-binutils-2.21-NPTL/usr/lib/gcc/arm-unknown-linux-uclibcgnueabi/4.6.2/libgcc.a(_fixunsdfdi.o)
 .debug_frame   0x00000000000063b0       0x50 /opt/toolchains/crosstools-arm-gcc-4.6-linux-3.4-uclibc-0.9.32-binutils-2.21-NPTL/usr/lib/gcc/arm-unknown-linux-uclibcgnueabi/4.6.2/libgcc.a(bpabi.o)
 .debug_frame   0x0000000000006400       0x38 /opt/toolchains/crosstools-arm-gcc-4.6-linux-3.4-uclibc-0.9.32-binutils-2.21-NPTL/usr/lib/gcc/arm-unknown-linux-uclibcgnueabi/4.6.2/libgcc.a(_divdi3.o)
 .debug_frame   0x0000000000006438       0x3c /opt/toolchains/crosstools-arm-gcc-4.6-linux-3.4-uclibc-0.9.32-binutils-2.21-NPTL/usr/lib/gcc/arm-unknown-linux-uclibcgnueabi/4.6.2/libgcc.a(_udivdi3.o)
 .debug_frame   0x0000000000006474      0x240 /opt/toolchains/crosstools-arm-gcc-4.6-linux-3.4-uclibc-0.9.32-binutils-2.21-NPTL/usr/lib/gcc/arm-unknown-linux-uclibcgnueabi/4.6.2/libgcc_eh.a(unwind-arm.o)
 .debug_frame   0x00000000000066b4       0xdc /opt/toolchains/crosstools-arm-gcc-4.6-linux-3.4-uclibc-0.9.32-binutils-2.21-NPTL/usr/lib/gcc/arm-unknown-linux-uclibcgnueabi/4.6.2/libgcc_eh.a(pr-support.o)

.debug_str      0x0000000000000000     0xebc5
 *(SORT(.debug_str) SORT(.zdebug_str))
 .debug_str     0x0000000000000000       0xb4 applets/built-in.o
                                         0xed (size before relaxing)
 .debug_str     0x00000000000000b4      0x1f9 libbb/lib.a(appletlib.o)
                                        0x2e3 (size before relaxing)
 .debug_str     0x00000000000002ad       0x20 libbb/lib.a(bb_basename.o)
                                        0x100 (size before relaxing)
 .debug_str     0x00000000000002cd       0x1d libbb/lib.a(default_error_retval.o)
                                        0x190 (size before relaxing)
 .debug_str     0x00000000000002ea       0x64 libbb/lib.a(get_last_path_component.o)
                                        0x14a (size before relaxing)
 .debug_str     0x000000000000034e       0x22 libbb/lib.a(last_char_is.o)
                                        0x104 (size before relaxing)
 .debug_str     0x0000000000000370      0x214 libbb/lib.a(messages.o)
                                        0x393 (size before relaxing)
 .debug_str     0x0000000000000584       0x26 libbb/lib.a(ptr_to_globals.o)
                                         0x89 (size before relaxing)
 .debug_str     0x00000000000005aa       0x7e libbb/lib.a(xfunc_die.o)
                                        0x1f9 (size before relaxing)
 .debug_str     0x0000000000000628      0x1cf libbb/lib.a(xfuncs.o)
                                        0x387 (size before relaxing)
 .debug_str     0x00000000000007f7      0x5cd libbb/lib.a(xfuncs_printf.o)
                                        0x7d3 (size before relaxing)
 .debug_str     0x0000000000000dc4       0x78 libbb/lib.a(copyfd.o)
                                        0x1c3 (size before relaxing)
 .debug_str     0x0000000000000e3c       0x1e libbb/lib.a(full_write.o)
                                        0x118 (size before relaxing)
 .debug_str     0x0000000000000e5a       0x69 libbb/lib.a(perror_msg.o)
                                        0x173 (size before relaxing)
 .debug_str     0x0000000000000ec3       0x17 libbb/lib.a(read.o)
                                        0x153 (size before relaxing)
 .debug_str     0x0000000000000eda       0x1e libbb/lib.a(safe_write.o)
                                        0x121 (size before relaxing)
 .debug_str     0x0000000000000ef8       0xeb libbb/lib.a(time.o)
                                        0x1fa (size before relaxing)
 .debug_str     0x0000000000000fe3       0xc0 libbb/lib.a(verror_msg.o)
                                        0x257 (size before relaxing)
 .debug_str     0x00000000000010a3       0x76 libbb/lib.a(bb_strtonum.o)
                                        0x165 (size before relaxing)
 .debug_str     0x0000000000001119       0x34 loginutils/lib.a(deluser.o)
                                        0x1a3 (size before relaxing)
 .debug_str     0x000000000000114d       0x97 miscutils/lib.a(chrt.o)
                                        0x224 (size before relaxing)
 .debug_str     0x00000000000011e4      0x187 miscutils/lib.a(flash_eraseall.o)
                                        0x68d (size before relaxing)
 .debug_str     0x000000000000136b       0xd8 miscutils/lib.a(sysinfo.o)
                                        0x237 (size before relaxing)
 .debug_str     0x0000000000001443       0x5f miscutils/lib.a(taskset.o)
                                        0x198 (size before relaxing)
 .debug_str     0x00000000000014a2      0x156 modutils/lib.a(depmod.o)
                                        0x5ce (size before relaxing)
 .debug_str     0x00000000000015f8       0x1e modutils/lib.a(insmod.o)
                                        0x10c (size before relaxing)
 .debug_str     0x0000000000001616      0x2fd modutils/lib.a(modprobe.o)
                                        0x8b8 (size before relaxing)
 .debug_str     0x0000000000001913       0xb9 modutils/lib.a(modutils.o)
                                        0x206 (size before relaxing)
 .debug_str     0x00000000000019cc       0x1c modutils/lib.a(rmmod.o)
                                        0x125 (size before relaxing)
 .debug_str     0x00000000000019e8      0xf46 networking/lib.a(ftpgetput.o)
                                       0x14e8 (size before relaxing)
 .debug_str     0x000000000000292e      0x2bc networking/lib.a(ifconfig.o)
                                        0x5bb (size before relaxing)
 .debug_str     0x0000000000002bea      0x5ab networking/lib.a(interface.o)
                                        0xcad (size before relaxing)
 .debug_str     0x0000000000003195       0x82 networking/lib.a(nc.o)
                                        0x18e (size before relaxing)
 .debug_str     0x0000000000003217     0x2382 networking/lib.a(ping.o)
                                       0x33cc (size before relaxing)
 .debug_str     0x0000000000005599     0x10cd networking/lib.a(route.o)
                                       0x16f0 (size before relaxing)
 .debug_str     0x0000000000006666      0x150 networking/lib.a(sendarp.o)
                                        0x470 (size before relaxing)
 .debug_str     0x00000000000067b6      0x24a networking/lib.a(tftp.o)
                                       0x2e90 (size before relaxing)
 .debug_str     0x0000000000006a00      0x272 networking/lib.a(tftpd.o)
                                       0x12b7 (size before relaxing)
 .debug_str     0x0000000000006c72      0x41f networking/lib.a(traceroute.o)
                                       0x346e (size before relaxing)
 .debug_str     0x0000000000007091      0x21e networking/lib.a(vconfig.o)
                                        0x3a9 (size before relaxing)
 .debug_str     0x00000000000072af      0x278 networking/lib.a(wget.o)
                                        0x7c0 (size before relaxing)
 .debug_str     0x0000000000007527      0x17d procps/lib.a(kill.o)
                                        0x290 (size before relaxing)
 .debug_str     0x00000000000076a4       0xd4 procps/lib.a(ps.o)
                                        0x31d (size before relaxing)
 .debug_str     0x0000000000007778      0x352 procps/lib.a(top.o)
                                        0x8f0 (size before relaxing)
 .debug_str     0x0000000000007aca     0x19fe shell/lib.a(ash.o)
                                       0x3349 (size before relaxing)
 .debug_str     0x00000000000094c8       0x15 shell/lib.a(ash_ptr_hack.o)
                                         0xdc (size before relaxing)
 .debug_str     0x00000000000094dd      0x149 shell/lib.a(math.o)
                                        0x38a (size before relaxing)
 .debug_str     0x0000000000009626      0x22f shell/lib.a(shell_common.o)
                                        0x720 (size before relaxing)
 .debug_str     0x0000000000009855       0xb5 sysklogd/lib.a(klogd.o)
                                        0x74d (size before relaxing)
 .debug_str     0x000000000000990a       0xc3 sysklogd/lib.a(logread.o)
                                        0x49d (size before relaxing)
 .debug_str     0x00000000000099cd      0x3ff sysklogd/lib.a(syslogd_and_logger.o)
                                       0x1077 (size before relaxing)
 .debug_str     0x0000000000009dcc       0x1e util-linux/lib.a(dmesg.o)
                                        0x120 (size before relaxing)
 .debug_str     0x0000000000009dea       0x78 util-linux/lib.a(more.o)
                                        0x542 (size before relaxing)
 .debug_str     0x0000000000009e62      0x2a3 util-linux/lib.a(mount.o)
                                        0x84e (size before relaxing)
 .debug_str     0x000000000000a105       0x40 util-linux/lib.a(umount.o)
                                        0x444 (size before relaxing)
 .debug_str     0x000000000000a145       0xf2 archival/lib.a(bbunzip.o)
                                        0x3a7 (size before relaxing)
 .debug_str     0x000000000000a237      0x294 archival/libunarchive/lib.a(decompress_bunzip2.o)
                                        0x440 (size before relaxing)
 .debug_str     0x000000000000a4cb      0x454 archival/libunarchive/lib.a(decompress_unzip.o)
                                        0x6fa (size before relaxing)
 .debug_str     0x000000000000a91f       0x2d coreutils/lib.a(cat.o)
                                        0x139 (size before relaxing)
 .debug_str     0x000000000000a94c       0x3f coreutils/lib.a(chmod.o)
                                        0x296 (size before relaxing)
 .debug_str     0x000000000000a98b      0x105 coreutils/lib.a(cp.o)
                                        0x33d (size before relaxing)
 .debug_str     0x000000000000aa90       0xb2 coreutils/lib.a(date.o)
                                        0x376 (size before relaxing)
 .debug_str     0x000000000000ab42      0x101 coreutils/lib.a(dd.o)
                                        0x64d (size before relaxing)
 .debug_str     0x000000000000ac43      0x103 coreutils/lib.a(df.o)
                                        0x47f (size before relaxing)
 .debug_str     0x000000000000ad46       0x27 coreutils/lib.a(echo.o)
                                        0x326 (size before relaxing)
 .debug_str     0x000000000000ad6d      0x233 coreutils/lib.a(expr.o)
                                        0x3b2 (size before relaxing)
 .debug_str     0x000000000000afa0       0x1d coreutils/lib.a(false.o)
                                        0x102 (size before relaxing)
 .debug_str     0x000000000000afbd       0x31 coreutils/lib.a(ln.o)
                                        0x273 (size before relaxing)
 .debug_str     0x000000000000afee      0x48c coreutils/lib.a(ls.o)
                                        0xa13 (size before relaxing)
 .debug_str     0x000000000000b47a       0x1d coreutils/lib.a(mkdir.o)
                                        0x1f9 (size before relaxing)
 .debug_str     0x000000000000b497       0x34 coreutils/lib.a(mknod.o)
                                        0x1fa (size before relaxing)
 .debug_str     0x000000000000b4cb       0x19 coreutils/lib.a(pwd.o)
                                         0xfe (size before relaxing)
 .debug_str     0x000000000000b4e4       0x17 coreutils/lib.a(rm.o)
                                        0x1ef (size before relaxing)
 .debug_str     0x000000000000b4fb       0x36 coreutils/lib.a(sleep.o)
                                        0x1b8 (size before relaxing)
 .debug_str     0x000000000000b531      0x421 coreutils/lib.a(stty.o)
                                        0x9a3 (size before relaxing)
 .debug_str     0x000000000000b952       0x1b coreutils/lib.a(sync.o)
                                        0x100 (size before relaxing)
 .debug_str     0x000000000000b96d      0x23e coreutils/lib.a(test.o)
                                        0x579 (size before relaxing)
 .debug_str     0x000000000000bbab       0x1a coreutils/lib.a(test_ptr_hack.o)
                                         0x8d (size before relaxing)
 .debug_str     0x000000000000bbc5       0x1b coreutils/lib.a(true.o)
                                        0x100 (size before relaxing)
 .debug_str     0x000000000000bbe0       0x10 coreutils/lib.a(tty.o)
                                        0x118 (size before relaxing)
 .debug_str     0x000000000000bbf0       0x4d coreutils/libcoreutils/lib.a(cp_mv_stat.o)
                                        0x24c (size before relaxing)
 .debug_str     0x000000000000bc3d       0x3f coreutils/libcoreutils/lib.a(getopt_mk_fifo_nod.o)
                                        0x13a (size before relaxing)
 .debug_str     0x000000000000bc7c      0x238 findutils/lib.a(grep.o)
                                        0x872 (size before relaxing)
 .debug_str     0x000000000000beb4       0x1e init/lib.a(halt.o)
                                        0x158 (size before relaxing)
 .debug_str     0x000000000000bed2      0x1fd init/lib.a(init.o)
                                        0x9fe (size before relaxing)
 .debug_str     0x000000000000c0cf       0xc3 libbb/lib.a(bb_pwd.o)
                                        0x222 (size before relaxing)
 .debug_str     0x000000000000c192       0x79 libbb/lib.a(compare_string_array.o)
                                        0x15c (size before relaxing)
 .debug_str     0x000000000000c20b       0x2a libbb/lib.a(concat_path_file.o)
                                        0x113 (size before relaxing)
 .debug_str     0x000000000000c235       0x83 libbb/lib.a(copy_file.o)
                                        0x60f (size before relaxing)
 .debug_str     0x000000000000c2b8       0x29 libbb/lib.a(crc32.o)
                                        0x11e (size before relaxing)
 .debug_str     0x000000000000c2e1       0x30 libbb/lib.a(create_icmp6_socket.o)
                                        0x34f (size before relaxing)
 .debug_str     0x000000000000c311       0x2e libbb/lib.a(create_icmp_socket.o)
                                        0x1c5 (size before relaxing)
 .debug_str     0x000000000000c33f       0x20 libbb/lib.a(device_open.o)
                                        0x107 (size before relaxing)
 .debug_str     0x000000000000c35f       0x54 libbb/lib.a(execable.o)
                                        0x27e (size before relaxing)
 .debug_str     0x000000000000c3b3       0x2c libbb/lib.a(fclose_nonstdin.o)
                                        0x329 (size before relaxing)
 .debug_str     0x000000000000c3df       0x36 libbb/lib.a(fflush_stdout_and_exit.o)
                                        0x366 (size before relaxing)
 .debug_str     0x000000000000c415       0x60 libbb/lib.a(find_mount_point.o)
                                        0x4b9 (size before relaxing)
 .debug_str     0x000000000000c475       0x5d libbb/lib.a(find_pid_by_name.o)
                                        0x347 (size before relaxing)
 .debug_str     0x000000000000c4d2       0x82 libbb/lib.a(get_line_from_file.o)
                                        0x37c (size before relaxing)
 .debug_str     0x000000000000c554       0xbd libbb/lib.a(getopt32.o)
                                        0x2fc (size before relaxing)
 .debug_str     0x000000000000c611       0x73 libbb/lib.a(human_readable.o)
                                        0x154 (size before relaxing)
 .debug_str     0x000000000000c684       0xf8 libbb/lib.a(inet_common.o)
                                        0x343 (size before relaxing)
 .debug_str     0x000000000000c77c       0x1d libbb/lib.a(info_msg.o)
                                        0x16b (size before relaxing)
 .debug_str     0x000000000000c799       0x81 libbb/lib.a(inode_hash.o)
                                        0x32c (size before relaxing)
 .debug_str     0x000000000000c81a       0x36 libbb/lib.a(isdirectory.o)
                                        0x244 (size before relaxing)
 .debug_str     0x000000000000c850      0x56b libbb/lib.a(lineedit.o)
                                        0xbae (size before relaxing)
 .debug_str     0x000000000000cdbb       0x1a libbb/lib.a(lineedit_ptr_hack.o)
                                         0x95 (size before relaxing)
 .debug_str     0x000000000000cdd5       0x8a libbb/lib.a(llist.o)
                                        0x18b (size before relaxing)
 .debug_str     0x000000000000ce5f       0x6c libbb/lib.a(login.o)
                                        0x454 (size before relaxing)
 .debug_str     0x000000000000cecb       0x52 libbb/lib.a(make_directory.o)
                                        0x330 (size before relaxing)
 .debug_str     0x000000000000cf1d       0x3b libbb/lib.a(makedev.o)
                                         0xbd (size before relaxing)
 .debug_str     0x000000000000cf58       0x2b libbb/lib.a(match_fstype.o)
                                        0x14c (size before relaxing)
 .debug_str     0x000000000000cf83       0x39 libbb/lib.a(mode_string.o)
                                        0x1ae (size before relaxing)
 .debug_str     0x000000000000cfbc       0x12 libbb/lib.a(mtab_file.o)
                                        0x184 (size before relaxing)
 .debug_str     0x000000000000cfce       0x74 libbb/lib.a(parse_config.o)
                                        0x401 (size before relaxing)
 .debug_str     0x000000000000d042       0x85 libbb/lib.a(parse_mode.o)
                                        0x180 (size before relaxing)
 .debug_str     0x000000000000d0c7       0x35 libbb/lib.a(perror_nomsg_and_die.o)
                                         0x94 (size before relaxing)
 .debug_str     0x000000000000d0fc       0x34 libbb/lib.a(printable_string.o)
                                        0x14d (size before relaxing)
 .debug_str     0x000000000000d130       0x4e libbb/lib.a(process_escape_sequence.o)
                                        0x12e (size before relaxing)
 .debug_str     0x000000000000d17e      0x138 libbb/lib.a(procps.o)
                                        0x68b (size before relaxing)
 .debug_str     0x000000000000d2b6       0x44 libbb/lib.a(read_key.o)
                                        0x25f (size before relaxing)
 .debug_str     0x000000000000d2fa       0xcd libbb/lib.a(read_printf.o)
                                        0x329 (size before relaxing)
 .debug_str     0x000000000000d3c7       0x60 libbb/lib.a(recursive_action.o)
                                        0x33a (size before relaxing)
 .debug_str     0x000000000000d427       0x33 libbb/lib.a(remove_file.o)
                                        0x555 (size before relaxing)
 .debug_str     0x000000000000d45a       0x3d libbb/lib.a(safe_gethostname.o)
                                        0x154 (size before relaxing)
 .debug_str     0x000000000000d497       0x2d libbb/lib.a(safe_poll.o)
                                        0x12f (size before relaxing)
 .debug_str     0x000000000000d4c4       0x35 libbb/lib.a(safe_strncpy.o)
                                        0x11c (size before relaxing)
 .debug_str     0x000000000000d4f9       0xe9 libbb/lib.a(signals.o)
                                        0x3f4 (size before relaxing)
 .debug_str     0x000000000000d5e2       0x44 libbb/lib.a(simplify_path.o)
                                        0x12a (size before relaxing)
 .debug_str     0x000000000000d626       0x49 libbb/lib.a(skip_whitespace.o)
                                        0x12d (size before relaxing)
 .debug_str     0x000000000000d66f       0x4d libbb/lib.a(speed_table.o)
                                        0x1c8 (size before relaxing)
 .debug_str     0x000000000000d6bc       0x20 libbb/lib.a(str_tolower.o)
                                        0x10c (size before relaxing)
 .debug_str     0x000000000000d6dc       0x28 libbb/lib.a(strrstr.o)
                                        0x103 (size before relaxing)
 .debug_str     0x000000000000d704       0x3d libbb/lib.a(u_signal_names.o)
                                        0x1d4 (size before relaxing)
 .debug_str     0x000000000000d741       0xa4 libbb/lib.a(udp_io.o)
                                        0x535 (size before relaxing)
 .debug_str     0x000000000000d7e5       0xc5 libbb/lib.a(update_passwd.o)
                                        0x502 (size before relaxing)
 .debug_str     0x000000000000d8aa       0x60 libbb/lib.a(vfork_daemon_rexec.o)
                                        0x1c2 (size before relaxing)
 .debug_str     0x000000000000d90a       0x7e libbb/lib.a(wfopen.o)
                                        0x3ad (size before relaxing)
 .debug_str     0x000000000000d988       0x42 libbb/lib.a(wfopen_input.o)
                                        0x368 (size before relaxing)
 .debug_str     0x000000000000d9ca      0x1ce libbb/lib.a(xatonum.o)
                                        0x305 (size before relaxing)
 .debug_str     0x000000000000db98      0x2a4 libbb/lib.a(xconnect.o)
                                        0x74e (size before relaxing)
 .debug_str     0x000000000000de3c       0x31 libbb/lib.a(xgetcwd.o)
                                        0x115 (size before relaxing)
 .debug_str     0x000000000000de6d       0x91 libbb/lib.a(xreadlink.o)
                                        0x191 (size before relaxing)
 .debug_str     0x000000000000defe       0x40 libbb/lib.a(xrealloc_vector.o)
                                        0x12f (size before relaxing)
 .debug_str     0x000000000000df3e       0x41 libbb/lib.a(xregcomp.o)
                                        0x1e0 (size before relaxing)
 .debug_str     0x000000000000df7f       0x41 libbb/lib.a(ask_confirmation.o)
                                        0x335 (size before relaxing)
 .debug_str     0x000000000000dfc0       0x30 libbb/lib.a(bb_qsort.o)
                                        0x111 (size before relaxing)
 .debug_str     0x000000000000dff0       0x30 libbb/lib.a(concat_subpath_file.o)
                                        0x110 (size before relaxing)
 .debug_str     0x000000000000e020       0x25 libbb/lib.a(perror_nomsg.o)
                                         0x84 (size before relaxing)
 .debug_str     0x000000000000e045      0x120 /opt/toolchains/crosstools-arm-gcc-4.6-linux-3.4-uclibc-0.9.32-binutils-2.21-NPTL/usr/lib/gcc/arm-unknown-linux-uclibcgnueabi/4.6.2/libgcc.a(_fixunsdfdi.o)
                                        0x1c2 (size before relaxing)
 .debug_str     0x000000000000e165       0xac /opt/toolchains/crosstools-arm-gcc-4.6-linux-3.4-uclibc-0.9.32-binutils-2.21-NPTL/usr/lib/gcc/arm-unknown-linux-uclibcgnueabi/4.6.2/libgcc.a(bpabi.o)
                                         0xdd (size before relaxing)
 .debug_str     0x000000000000e211       0x54 /opt/toolchains/crosstools-arm-gcc-4.6-linux-3.4-uclibc-0.9.32-binutils-2.21-NPTL/usr/lib/gcc/arm-unknown-linux-uclibcgnueabi/4.6.2/libgcc.a(_divdi3.o)
                                        0x215 (size before relaxing)
 .debug_str     0x000000000000e265        0xa /opt/toolchains/crosstools-arm-gcc-4.6-linux-3.4-uclibc-0.9.32-binutils-2.21-NPTL/usr/lib/gcc/arm-unknown-linux-uclibcgnueabi/4.6.2/libgcc.a(_udivdi3.o)
                                        0x216 (size before relaxing)
 .debug_str     0x000000000000e26f      0x826 /opt/toolchains/crosstools-arm-gcc-4.6-linux-3.4-uclibc-0.9.32-binutils-2.21-NPTL/usr/lib/gcc/arm-unknown-linux-uclibcgnueabi/4.6.2/libgcc_eh.a(unwind-arm.o)
                                        0x922 (size before relaxing)
 .debug_str     0x000000000000ea95      0x130 /opt/toolchains/crosstools-arm-gcc-4.6-linux-3.4-uclibc-0.9.32-binutils-2.21-NPTL/usr/lib/gcc/arm-unknown-linux-uclibcgnueabi/4.6.2/libgcc_eh.a(pr-support.o)
                                        0x459 (size before relaxing)

.debug_loc      0x0000000000000000    0x29552
 *(SORT(.debug_loc) SORT(.zdebug_loc))
 .debug_loc     0x0000000000000000      0x3ca libbb/lib.a(appletlib.o)
 .debug_loc     0x00000000000003ca       0x51 libbb/lib.a(bb_basename.o)
 .debug_loc     0x000000000000041b       0xa2 libbb/lib.a(get_last_path_component.o)
 .debug_loc     0x00000000000004bd       0x7c libbb/lib.a(last_char_is.o)
 .debug_loc     0x0000000000000539       0x20 libbb/lib.a(xfunc_die.o)
 .debug_loc     0x0000000000000559      0x721 libbb/lib.a(xfuncs.o)
 .debug_loc     0x0000000000000c7a     0x10b4 libbb/lib.a(xfuncs_printf.o)
 .debug_loc     0x0000000000001d2e      0x2b5 libbb/lib.a(copyfd.o)
 .debug_loc     0x0000000000001fe3       0xb7 libbb/lib.a(full_write.o)
 .debug_loc     0x000000000000209a       0xb4 libbb/lib.a(perror_msg.o)
 .debug_loc     0x000000000000214e      0x22d libbb/lib.a(read.o)
 .debug_loc     0x000000000000237b       0x7a libbb/lib.a(safe_write.o)
 .debug_loc     0x00000000000023f5      0x25f libbb/lib.a(time.o)
 .debug_loc     0x0000000000002654      0x1d0 libbb/lib.a(verror_msg.o)
 .debug_loc     0x0000000000002824      0x383 libbb/lib.a(bb_strtonum.o)
 .debug_loc     0x0000000000002ba7       0x98 loginutils/lib.a(deluser.o)
 .debug_loc     0x0000000000002c3f      0x297 miscutils/lib.a(chrt.o)
 .debug_loc     0x0000000000002ed6      0x232 miscutils/lib.a(flash_eraseall.o)
 .debug_loc     0x0000000000003108       0xec miscutils/lib.a(sysinfo.o)
 .debug_loc     0x00000000000031f4      0x2b9 miscutils/lib.a(taskset.o)
 .debug_loc     0x00000000000034ad      0x2e3 modutils/lib.a(depmod.o)
 .debug_loc     0x0000000000003790       0x9d modutils/lib.a(insmod.o)
 .debug_loc     0x000000000000382d      0x781 modutils/lib.a(modprobe.o)
 .debug_loc     0x0000000000003fae      0x36a modutils/lib.a(modutils.o)
 .debug_loc     0x0000000000004318       0xd7 modutils/lib.a(rmmod.o)
 .debug_loc     0x00000000000043ef      0x751 networking/lib.a(ftpgetput.o)
 .debug_loc     0x0000000000004b40      0x5d3 networking/lib.a(ifconfig.o)
 .debug_loc     0x0000000000005113      0xd96 networking/lib.a(interface.o)
 .debug_loc     0x0000000000005ea9       0xee networking/lib.a(nc.o)
 .debug_loc     0x0000000000005f97      0x831 networking/lib.a(ping.o)
 .debug_loc     0x00000000000067c8      0x7b0 networking/lib.a(route.o)
 .debug_loc     0x0000000000006f78      0x2fd networking/lib.a(sendarp.o)
 .debug_loc     0x0000000000007275      0x85a networking/lib.a(tftp.o)
 .debug_loc     0x0000000000007acf      0x62e networking/lib.a(tftpd.o)
 .debug_loc     0x00000000000080fd      0xec5 networking/lib.a(traceroute.o)
 .debug_loc     0x0000000000008fc2      0x148 networking/lib.a(vconfig.o)
 .debug_loc     0x000000000000910a      0xa75 networking/lib.a(wget.o)
 .debug_loc     0x0000000000009b7f      0x401 procps/lib.a(kill.o)
 .debug_loc     0x0000000000009f80       0xea procps/lib.a(ps.o)
 .debug_loc     0x000000000000a06a      0xbe6 procps/lib.a(top.o)
 .debug_loc     0x000000000000ac50     0xa4e2 shell/lib.a(ash.o)
 .debug_loc     0x0000000000015132      0x778 shell/lib.a(math.o)
 .debug_loc     0x00000000000158aa      0x6f7 shell/lib.a(shell_common.o)
 .debug_loc     0x0000000000015fa1      0x1d9 sysklogd/lib.a(klogd.o)
 .debug_loc     0x000000000001617a      0x1e6 sysklogd/lib.a(logread.o)
 .debug_loc     0x0000000000016360      0x942 sysklogd/lib.a(syslogd_and_logger.o)
 .debug_loc     0x0000000000016ca2       0xef util-linux/lib.a(dmesg.o)
 .debug_loc     0x0000000000016d91      0x36d util-linux/lib.a(more.o)
 .debug_loc     0x00000000000170fe      0x7c1 util-linux/lib.a(mount.o)
 .debug_loc     0x00000000000178bf      0x305 util-linux/lib.a(umount.o)
 .debug_loc     0x0000000000017bc4      0x453 archival/lib.a(bbunzip.o)
 .debug_loc     0x0000000000018017      0xb6c archival/libunarchive/lib.a(decompress_bunzip2.o)
 .debug_loc     0x0000000000018b83     0x1366 archival/libunarchive/lib.a(decompress_unzip.o)
 .debug_loc     0x0000000000019ee9       0xef coreutils/lib.a(cat.o)
 .debug_loc     0x0000000000019fd8      0x166 coreutils/lib.a(chmod.o)
 .debug_loc     0x000000000001a13e      0x176 coreutils/lib.a(cp.o)
 .debug_loc     0x000000000001a2b4      0x1df coreutils/lib.a(date.o)
 .debug_loc     0x000000000001a493      0x4dd coreutils/lib.a(dd.o)
 .debug_loc     0x000000000001a970      0x225 coreutils/lib.a(df.o)
 .debug_loc     0x000000000001ab95       0xaa coreutils/lib.a(echo.o)
 .debug_loc     0x000000000001ac3f      0xa7e coreutils/lib.a(expr.o)
 .debug_loc     0x000000000001b6bd       0x13 coreutils/lib.a(false.o)
 .debug_loc     0x000000000001b6d0      0x1d8 coreutils/lib.a(ln.o)
 .debug_loc     0x000000000001b8a8      0xbea coreutils/lib.a(ls.o)
 .debug_loc     0x000000000001c492       0xe3 coreutils/lib.a(mkdir.o)
 .debug_loc     0x000000000001c575      0x151 coreutils/lib.a(mknod.o)
 .debug_loc     0x000000000001c6c6       0x64 coreutils/lib.a(pwd.o)
 .debug_loc     0x000000000001c72a      0x10e coreutils/lib.a(rm.o)
 .debug_loc     0x000000000001c838       0x96 coreutils/lib.a(sleep.o)
 .debug_loc     0x000000000001c8ce      0xc22 coreutils/lib.a(stty.o)
 .debug_loc     0x000000000001d4f0       0x46 coreutils/lib.a(sync.o)
 .debug_loc     0x000000000001d536      0x60a coreutils/lib.a(test.o)
 .debug_loc     0x000000000001db40       0x13 coreutils/lib.a(true.o)
 .debug_loc     0x000000000001db53       0x83 coreutils/lib.a(tty.o)
 .debug_loc     0x000000000001dbd6       0x95 coreutils/libcoreutils/lib.a(cp_mv_stat.o)
 .debug_loc     0x000000000001dc6b       0x46 coreutils/libcoreutils/lib.a(getopt_mk_fifo_nod.o)
 .debug_loc     0x000000000001dcb1      0x573 findutils/lib.a(grep.o)
 .debug_loc     0x000000000001e224       0xe2 init/lib.a(halt.o)
 .debug_loc     0x000000000001e306      0x892 init/lib.a(init.o)
 .debug_loc     0x000000000001eb98      0x3f9 libbb/lib.a(bb_pwd.o)
 .debug_loc     0x000000000001ef91      0x224 libbb/lib.a(compare_string_array.o)
 .debug_loc     0x000000000001f1b5       0x92 libbb/lib.a(concat_path_file.o)
 .debug_loc     0x000000000001f247      0x43c libbb/lib.a(copy_file.o)
 .debug_loc     0x000000000001f683       0xc3 libbb/lib.a(crc32.o)
 .debug_loc     0x000000000001f746       0x3e libbb/lib.a(create_icmp6_socket.o)
 .debug_loc     0x000000000001f784       0x3e libbb/lib.a(create_icmp_socket.o)
 .debug_loc     0x000000000001f7c2       0x8e libbb/lib.a(device_open.o)
 .debug_loc     0x000000000001f850      0x1bd libbb/lib.a(execable.o)
 .debug_loc     0x000000000001fa0d       0x5c libbb/lib.a(fclose_nonstdin.o)
 .debug_loc     0x000000000001fa69       0x3e libbb/lib.a(fflush_stdout_and_exit.o)
 .debug_loc     0x000000000001faa7       0xfb libbb/lib.a(find_mount_point.o)
 .debug_loc     0x000000000001fba2      0x1e5 libbb/lib.a(find_pid_by_name.o)
 .debug_loc     0x000000000001fd87      0x1e2 libbb/lib.a(get_line_from_file.o)
 .debug_loc     0x000000000001ff69      0x418 libbb/lib.a(getopt32.o)
 .debug_loc     0x0000000000020381      0x59b libbb/lib.a(human_readable.o)
 .debug_loc     0x000000000002091c      0x35d libbb/lib.a(inet_common.o)
 .debug_loc     0x0000000000020c79       0x57 libbb/lib.a(info_msg.o)
 .debug_loc     0x0000000000020cd0      0x105 libbb/lib.a(inode_hash.o)
 .debug_loc     0x0000000000020dd5       0xa5 libbb/lib.a(isdirectory.o)
 .debug_loc     0x0000000000020e7a     0x1134 libbb/lib.a(lineedit.o)
 .debug_loc     0x0000000000021fae      0x284 libbb/lib.a(llist.o)
 .debug_loc     0x0000000000022232      0x1a5 libbb/lib.a(login.o)
 .debug_loc     0x00000000000223d7      0x1ad libbb/lib.a(make_directory.o)
 .debug_loc     0x0000000000022584       0x82 libbb/lib.a(makedev.o)
 .debug_loc     0x0000000000022606       0xa4 libbb/lib.a(match_fstype.o)
 .debug_loc     0x00000000000226aa       0xea libbb/lib.a(mode_string.o)
 .debug_loc     0x0000000000022794      0x23f libbb/lib.a(parse_config.o)
 .debug_loc     0x00000000000229d3      0x267 libbb/lib.a(parse_mode.o)
 .debug_loc     0x0000000000022c3a      0x117 libbb/lib.a(printable_string.o)
 .debug_loc     0x0000000000022d51      0x1c5 libbb/lib.a(process_escape_sequence.o)
 .debug_loc     0x0000000000022f16      0x6ef libbb/lib.a(procps.o)
 .debug_loc     0x0000000000023605      0x265 libbb/lib.a(read_key.o)
 .debug_loc     0x000000000002386a      0x4d5 libbb/lib.a(read_printf.o)
 .debug_loc     0x0000000000023d3f      0x1d8 libbb/lib.a(recursive_action.o)
 .debug_loc     0x0000000000023f17      0x105 libbb/lib.a(remove_file.o)
 .debug_loc     0x000000000002401c       0x5a libbb/lib.a(safe_gethostname.o)
 .debug_loc     0x0000000000024076       0x98 libbb/lib.a(safe_poll.o)
 .debug_loc     0x000000000002410e       0x39 libbb/lib.a(safe_strncpy.o)
 .debug_loc     0x0000000000024147      0x370 libbb/lib.a(signals.o)
 .debug_loc     0x00000000000244b7      0x118 libbb/lib.a(simplify_path.o)
 .debug_loc     0x00000000000245cf       0x90 libbb/lib.a(skip_whitespace.o)
 .debug_loc     0x000000000002465f       0x8f libbb/lib.a(speed_table.o)
 .debug_loc     0x00000000000246ee       0x47 libbb/lib.a(str_tolower.o)
 .debug_loc     0x0000000000024735       0x99 libbb/lib.a(strrstr.o)
 .debug_loc     0x00000000000247ce       0xdf libbb/lib.a(u_signal_names.o)
 .debug_loc     0x00000000000248ad      0x274 libbb/lib.a(udp_io.o)
 .debug_loc     0x0000000000024b21      0x27b libbb/lib.a(update_passwd.o)
 .debug_loc     0x0000000000024d9c      0x1b5 libbb/lib.a(vfork_daemon_rexec.o)
 .debug_loc     0x0000000000024f51      0x132 libbb/lib.a(wfopen.o)
 .debug_loc     0x0000000000025083      0x106 libbb/lib.a(wfopen_input.o)
 .debug_loc     0x0000000000025189      0xcc2 libbb/lib.a(xatonum.o)
 .debug_loc     0x0000000000025e4b      0xaf8 libbb/lib.a(xconnect.o)
 .debug_loc     0x0000000000026943       0x92 libbb/lib.a(xgetcwd.o)
 .debug_loc     0x00000000000269d5      0x2e9 libbb/lib.a(xreadlink.o)
 .debug_loc     0x0000000000026cbe       0x90 libbb/lib.a(xrealloc_vector.o)
 .debug_loc     0x0000000000026d4e      0x140 libbb/lib.a(xregcomp.o)
 .debug_loc     0x0000000000026e8e       0x8f libbb/lib.a(ask_confirmation.o)
 .debug_loc     0x0000000000026f1d       0x4c libbb/lib.a(bb_qsort.o)
 .debug_loc     0x0000000000026f69       0x31 libbb/lib.a(concat_subpath_file.o)
 .debug_loc     0x0000000000026f9a       0x61 /opt/toolchains/crosstools-arm-gcc-4.6-linux-3.4-uclibc-0.9.32-binutils-2.21-NPTL/usr/lib/gcc/arm-unknown-linux-uclibcgnueabi/4.6.2/libgcc.a(_fixunsdfdi.o)
 .debug_loc     0x0000000000026ffb       0xa0 /opt/toolchains/crosstools-arm-gcc-4.6-linux-3.4-uclibc-0.9.32-binutils-2.21-NPTL/usr/lib/gcc/arm-unknown-linux-uclibcgnueabi/4.6.2/libgcc.a(bpabi.o)
 .debug_loc     0x000000000002709b      0x823 /opt/toolchains/crosstools-arm-gcc-4.6-linux-3.4-uclibc-0.9.32-binutils-2.21-NPTL/usr/lib/gcc/arm-unknown-linux-uclibcgnueabi/4.6.2/libgcc.a(_divdi3.o)
 .debug_loc     0x00000000000278be      0x789 /opt/toolchains/crosstools-arm-gcc-4.6-linux-3.4-uclibc-0.9.32-binutils-2.21-NPTL/usr/lib/gcc/arm-unknown-linux-uclibcgnueabi/4.6.2/libgcc.a(_udivdi3.o)
 .debug_loc     0x0000000000028047     0x1019 /opt/toolchains/crosstools-arm-gcc-4.6-linux-3.4-uclibc-0.9.32-binutils-2.21-NPTL/usr/lib/gcc/arm-unknown-linux-uclibcgnueabi/4.6.2/libgcc_eh.a(unwind-arm.o)
 .debug_loc     0x0000000000029060      0x4f2 /opt/toolchains/crosstools-arm-gcc-4.6-linux-3.4-uclibc-0.9.32-binutils-2.21-NPTL/usr/lib/gcc/arm-unknown-linux-uclibcgnueabi/4.6.2/libgcc_eh.a(pr-support.o)

.debug_macinfo
 *(SORT(.debug_macinfo) SORT(.zdebug_macinfo))

.debug_weaknames
 *(SORT(.debug_weaknames) SORT(.zdebug_weaknames))

.debug_funcnames
 *(SORT(.debug_funcnames) SORT(.zdebug_funcnames))

.debug_typenames
 *(SORT(.debug_typenames) SORT(.zdebug_typenames))

.debug_varnames
 *(SORT(.debug_varnames) SORT(.zdebug_varnames))

.debug_pubtypes
 *(SORT(.debug_pubtypes) SORT(.zdebug_pubtypes))

.debug_ranges   0x0000000000000000     0x4ba8
 *(SORT(.debug_ranges) SORT(.zdebug_ranges))
 .debug_ranges  0x0000000000000000       0x68 libbb/lib.a(appletlib.o)
 .debug_ranges  0x0000000000000068       0x10 libbb/lib.a(bb_basename.o)
 .debug_ranges  0x0000000000000078       0x18 libbb/lib.a(get_last_path_component.o)
 .debug_ranges  0x0000000000000090       0x10 libbb/lib.a(last_char_is.o)
 .debug_ranges  0x00000000000000a0       0x10 libbb/lib.a(xfunc_die.o)
 .debug_ranges  0x00000000000000b0       0xd8 libbb/lib.a(xfuncs.o)
 .debug_ranges  0x0000000000000188      0x1c0 libbb/lib.a(xfuncs_printf.o)
 .debug_ranges  0x0000000000000348       0x40 libbb/lib.a(copyfd.o)
 .debug_ranges  0x0000000000000388       0x10 libbb/lib.a(full_write.o)
 .debug_ranges  0x0000000000000398       0x28 libbb/lib.a(perror_msg.o)
 .debug_ranges  0x00000000000003c0       0x28 libbb/lib.a(read.o)
 .debug_ranges  0x00000000000003e8       0x10 libbb/lib.a(safe_write.o)
 .debug_ranges  0x00000000000003f8       0x38 libbb/lib.a(time.o)
 .debug_ranges  0x0000000000000430       0x20 libbb/lib.a(verror_msg.o)
 .debug_ranges  0x0000000000000450       0x38 libbb/lib.a(bb_strtonum.o)
 .debug_ranges  0x0000000000000488       0x18 loginutils/lib.a(deluser.o)
 .debug_ranges  0x00000000000004a0       0x30 miscutils/lib.a(chrt.o)
 .debug_ranges  0x00000000000004d0       0x88 miscutils/lib.a(flash_eraseall.o)
 .debug_ranges  0x0000000000000558       0x10 miscutils/lib.a(sysinfo.o)
 .debug_ranges  0x0000000000000568       0x70 miscutils/lib.a(taskset.o)
 .debug_ranges  0x00000000000005d8       0x48 modutils/lib.a(depmod.o)
 .debug_ranges  0x0000000000000620       0x10 modutils/lib.a(insmod.o)
 .debug_ranges  0x0000000000000630      0x128 modutils/lib.a(modprobe.o)
 .debug_ranges  0x0000000000000758       0x48 modutils/lib.a(modutils.o)
 .debug_ranges  0x00000000000007a0       0x10 modutils/lib.a(rmmod.o)
 .debug_ranges  0x00000000000007b0      0x208 networking/lib.a(ftpgetput.o)
 .debug_ranges  0x00000000000009b8       0x48 networking/lib.a(ifconfig.o)
 .debug_ranges  0x0000000000000a00      0x208 networking/lib.a(interface.o)
 .debug_ranges  0x0000000000000c08       0x38 networking/lib.a(nc.o)
 .debug_ranges  0x0000000000000c40      0x2d8 networking/lib.a(ping.o)
 .debug_ranges  0x0000000000000f18      0x128 networking/lib.a(route.o)
 .debug_ranges  0x0000000000001040       0x48 networking/lib.a(sendarp.o)
 .debug_ranges  0x0000000000001088       0xf8 networking/lib.a(tftp.o)
 .debug_ranges  0x0000000000001180      0x148 networking/lib.a(tftpd.o)
 .debug_ranges  0x00000000000012c8      0x420 networking/lib.a(traceroute.o)
 .debug_ranges  0x00000000000016e8       0x18 networking/lib.a(vconfig.o)
 .debug_ranges  0x0000000000001700      0x100 networking/lib.a(wget.o)
 .debug_ranges  0x0000000000001800       0x60 procps/lib.a(kill.o)
 .debug_ranges  0x0000000000001860       0x98 procps/lib.a(ps.o)
 .debug_ranges  0x00000000000018f8      0x1e8 procps/lib.a(top.o)
 .debug_ranges  0x0000000000001ae0     0x1210 shell/lib.a(ash.o)
 .debug_ranges  0x0000000000002cf0       0x68 shell/lib.a(math.o)
 .debug_ranges  0x0000000000002d58       0xb0 shell/lib.a(shell_common.o)
 .debug_ranges  0x0000000000002e08       0x60 sysklogd/lib.a(klogd.o)
 .debug_ranges  0x0000000000002e68       0x28 sysklogd/lib.a(logread.o)
 .debug_ranges  0x0000000000002e90      0x1d8 sysklogd/lib.a(syslogd_and_logger.o)
 .debug_ranges  0x0000000000003068       0x10 util-linux/lib.a(dmesg.o)
 .debug_ranges  0x0000000000003078       0x50 util-linux/lib.a(more.o)
 .debug_ranges  0x00000000000030c8       0xe0 util-linux/lib.a(mount.o)
 .debug_ranges  0x00000000000031a8       0x30 util-linux/lib.a(umount.o)
 .debug_ranges  0x00000000000031d8       0x50 archival/lib.a(bbunzip.o)
 .debug_ranges  0x0000000000003228       0x68 archival/libunarchive/lib.a(decompress_bunzip2.o)
 .debug_ranges  0x0000000000003290      0x110 archival/libunarchive/lib.a(decompress_unzip.o)
 .debug_ranges  0x00000000000033a0       0x18 coreutils/lib.a(cat.o)
 .debug_ranges  0x00000000000033b8       0x18 coreutils/lib.a(chmod.o)
 .debug_ranges  0x00000000000033d0       0x10 coreutils/lib.a(cp.o)
 .debug_ranges  0x00000000000033e0       0x18 coreutils/lib.a(date.o)
 .debug_ranges  0x00000000000033f8       0x58 coreutils/lib.a(dd.o)
 .debug_ranges  0x0000000000003450       0x30 coreutils/lib.a(df.o)
 .debug_ranges  0x0000000000003480       0x10 coreutils/lib.a(echo.o)
 .debug_ranges  0x0000000000003490       0xc0 coreutils/lib.a(expr.o)
 .debug_ranges  0x0000000000003550       0x10 coreutils/lib.a(false.o)
 .debug_ranges  0x0000000000003560       0x28 coreutils/lib.a(ln.o)
 .debug_ranges  0x0000000000003588      0x1d0 coreutils/lib.a(ls.o)
 .debug_ranges  0x0000000000003758       0x10 coreutils/lib.a(mkdir.o)
 .debug_ranges  0x0000000000003768       0x10 coreutils/lib.a(mknod.o)
 .debug_ranges  0x0000000000003778       0x10 coreutils/lib.a(pwd.o)
 .debug_ranges  0x0000000000003788       0x28 coreutils/lib.a(rm.o)
 .debug_ranges  0x00000000000037b0       0x28 coreutils/lib.a(sleep.o)
 .debug_ranges  0x00000000000037d8      0x130 coreutils/lib.a(stty.o)
 .debug_ranges  0x0000000000003908       0x10 coreutils/lib.a(sync.o)
 .debug_ranges  0x0000000000003918       0x78 coreutils/lib.a(test.o)
 .debug_ranges  0x0000000000003990       0x10 coreutils/lib.a(true.o)
 .debug_ranges  0x00000000000039a0       0x10 coreutils/lib.a(tty.o)
 .debug_ranges  0x00000000000039b0       0x18 coreutils/libcoreutils/lib.a(cp_mv_stat.o)
 .debug_ranges  0x00000000000039c8       0x10 coreutils/libcoreutils/lib.a(getopt_mk_fifo_nod.o)
 .debug_ranges  0x00000000000039d8      0x108 findutils/lib.a(grep.o)
 .debug_ranges  0x0000000000003ae0       0x10 init/lib.a(halt.o)
 .debug_ranges  0x0000000000003af0      0x160 init/lib.a(init.o)
 .debug_ranges  0x0000000000003c50       0x70 libbb/lib.a(bb_pwd.o)
 .debug_ranges  0x0000000000003cc0       0x28 libbb/lib.a(compare_string_array.o)
 .debug_ranges  0x0000000000003ce8       0x10 libbb/lib.a(concat_path_file.o)
 .debug_ranges  0x0000000000003cf8       0x80 libbb/lib.a(copy_file.o)
 .debug_ranges  0x0000000000003d78       0x10 libbb/lib.a(crc32.o)
 .debug_ranges  0x0000000000003d88       0x10 libbb/lib.a(create_icmp6_socket.o)
 .debug_ranges  0x0000000000003d98       0x10 libbb/lib.a(create_icmp_socket.o)
 .debug_ranges  0x0000000000003da8       0x10 libbb/lib.a(device_open.o)
 .debug_ranges  0x0000000000003db8       0x28 libbb/lib.a(execable.o)
 .debug_ranges  0x0000000000003de0       0x10 libbb/lib.a(fclose_nonstdin.o)
 .debug_ranges  0x0000000000003df0       0x10 libbb/lib.a(fflush_stdout_and_exit.o)
 .debug_ranges  0x0000000000003e00       0x10 libbb/lib.a(find_mount_point.o)
 .debug_ranges  0x0000000000003e10       0x30 libbb/lib.a(find_pid_by_name.o)
 .debug_ranges  0x0000000000003e40       0x40 libbb/lib.a(get_line_from_file.o)
 .debug_ranges  0x0000000000003e80       0x10 libbb/lib.a(getopt32.o)
 .debug_ranges  0x0000000000003e90       0x20 libbb/lib.a(human_readable.o)
 .debug_ranges  0x0000000000003eb0       0x28 libbb/lib.a(inet_common.o)
 .debug_ranges  0x0000000000003ed8       0x10 libbb/lib.a(info_msg.o)
 .debug_ranges  0x0000000000003ee8       0x18 libbb/lib.a(inode_hash.o)
 .debug_ranges  0x0000000000003f00       0x10 libbb/lib.a(isdirectory.o)
 .debug_ranges  0x0000000000003f10      0x258 libbb/lib.a(lineedit.o)
 .debug_ranges  0x0000000000004168       0x40 libbb/lib.a(llist.o)
 .debug_ranges  0x00000000000041a8       0x20 libbb/lib.a(login.o)
 .debug_ranges  0x00000000000041c8       0x10 libbb/lib.a(make_directory.o)
 .debug_ranges  0x00000000000041d8       0x28 libbb/lib.a(makedev.o)
 .debug_ranges  0x0000000000004200       0x10 libbb/lib.a(match_fstype.o)
 .debug_ranges  0x0000000000004210       0x10 libbb/lib.a(mode_string.o)
 .debug_ranges  0x0000000000004220       0x30 libbb/lib.a(parse_config.o)
 .debug_ranges  0x0000000000004250       0x10 libbb/lib.a(parse_mode.o)
 .debug_ranges  0x0000000000004260       0x10 libbb/lib.a(perror_nomsg_and_die.o)
 .debug_ranges  0x0000000000004270       0x48 libbb/lib.a(printable_string.o)
 .debug_ranges  0x00000000000042b8       0x10 libbb/lib.a(process_escape_sequence.o)
 .debug_ranges  0x00000000000042c8       0x98 libbb/lib.a(procps.o)
 .debug_ranges  0x0000000000004360       0x40 libbb/lib.a(read_key.o)
 .debug_ranges  0x00000000000043a0       0x50 libbb/lib.a(read_printf.o)
 .debug_ranges  0x00000000000043f0       0x18 libbb/lib.a(recursive_action.o)
 .debug_ranges  0x0000000000004408       0x28 libbb/lib.a(remove_file.o)
 .debug_ranges  0x0000000000004430       0x18 libbb/lib.a(safe_gethostname.o)
 .debug_ranges  0x0000000000004448       0x28 libbb/lib.a(safe_poll.o)
 .debug_ranges  0x0000000000004470       0x18 libbb/lib.a(safe_strncpy.o)
 .debug_ranges  0x0000000000004488       0x60 libbb/lib.a(signals.o)
 .debug_ranges  0x00000000000044e8       0x18 libbb/lib.a(simplify_path.o)
 .debug_ranges  0x0000000000004500       0x20 libbb/lib.a(skip_whitespace.o)
 .debug_ranges  0x0000000000004520       0x18 libbb/lib.a(speed_table.o)
 .debug_ranges  0x0000000000004538       0x10 libbb/lib.a(str_tolower.o)
 .debug_ranges  0x0000000000004548       0x10 libbb/lib.a(strrstr.o)
 .debug_ranges  0x0000000000004558       0x38 libbb/lib.a(u_signal_names.o)
 .debug_ranges  0x0000000000004590       0x20 libbb/lib.a(udp_io.o)
 .debug_ranges  0x00000000000045b0       0x10 libbb/lib.a(update_passwd.o)
 .debug_ranges  0x00000000000045c0       0x30 libbb/lib.a(vfork_daemon_rexec.o)
 .debug_ranges  0x00000000000045f0       0x48 libbb/lib.a(wfopen.o)
 .debug_ranges  0x0000000000004638       0x28 libbb/lib.a(wfopen_input.o)
 .debug_ranges  0x0000000000004660      0x120 libbb/lib.a(xatonum.o)
 .debug_ranges  0x0000000000004780      0x150 libbb/lib.a(xconnect.o)
 .debug_ranges  0x00000000000048d0       0x10 libbb/lib.a(xgetcwd.o)
 .debug_ranges  0x00000000000048e0       0x28 libbb/lib.a(xreadlink.o)
 .debug_ranges  0x0000000000004908       0x10 libbb/lib.a(xrealloc_vector.o)
 .debug_ranges  0x0000000000004918       0x18 libbb/lib.a(xregcomp.o)
 .debug_ranges  0x0000000000004930       0x30 libbb/lib.a(ask_confirmation.o)
 .debug_ranges  0x0000000000004960       0x18 libbb/lib.a(bb_qsort.o)
 .debug_ranges  0x0000000000004978       0x10 libbb/lib.a(concat_subpath_file.o)
 .debug_ranges  0x0000000000004988       0x10 libbb/lib.a(perror_nomsg.o)
 .debug_ranges  0x0000000000004998       0x78 /opt/toolchains/crosstools-arm-gcc-4.6-linux-3.4-uclibc-0.9.32-binutils-2.21-NPTL/usr/lib/gcc/arm-unknown-linux-uclibcgnueabi/4.6.2/libgcc.a(_divdi3.o)
 .debug_ranges  0x0000000000004a10       0x78 /opt/toolchains/crosstools-arm-gcc-4.6-linux-3.4-uclibc-0.9.32-binutils-2.21-NPTL/usr/lib/gcc/arm-unknown-linux-uclibcgnueabi/4.6.2/libgcc.a(_udivdi3.o)
 .debug_ranges  0x0000000000004a88       0xf0 /opt/toolchains/crosstools-arm-gcc-4.6-linux-3.4-uclibc-0.9.32-binutils-2.21-NPTL/usr/lib/gcc/arm-unknown-linux-uclibcgnueabi/4.6.2/libgcc_eh.a(unwind-arm.o)
 .debug_ranges  0x0000000000004b78       0x30 /opt/toolchains/crosstools-arm-gcc-4.6-linux-3.4-uclibc-0.9.32-binutils-2.21-NPTL/usr/lib/gcc/arm-unknown-linux-uclibcgnueabi/4.6.2/libgcc_eh.a(pr-support.o)

.gnu.attributes
 *(SORT(.gnu.attributes))

.note.gnu.arm.ident
 *(SORT(.note.gnu.arm.ident))

/DISCARD/
 *(SORT(.note.GNU-stack))
 *(SORT(.gnu_debuglink))
 *(SORT(.gnu.lto_*))
OUTPUT(busybox_unstripped elf32-littlearm)
